Archive member included because of file (symbol)

/xspace/OrangePi/MTK/OrangePi_4G-iot/bootloader/preloader/platform/mt6735/src/SecLib.a(seclib_boot.o)
                              /xspace/OrangePi/MTK/OrangePi_4G-iot/output//obj/sec_boot.o (seclib_sec_boot_enabled)
/xspace/OrangePi/MTK/OrangePi_4G-iot/bootloader/preloader/platform/mt6735/src/SecLib.a(seclib_dl.o)
                              /xspace/OrangePi/MTK/OrangePi_4G-iot/output//obj/download.o (seclib_sec_usbdl_enabled)
/xspace/OrangePi/MTK/OrangePi_4G-iot/bootloader/preloader/platform/mt6735/src/SecLib.a(seclib_key.o)
                              /xspace/OrangePi/MTK/OrangePi_4G-iot/output//obj/sec_key.o (seclib_read_sbc_key)
/xspace/OrangePi/MTK/OrangePi_4G-iot/bootloader/preloader/platform/mt6735/src/SecLib.a(seclib.o)
                              /xspace/OrangePi/MTK/OrangePi_4G-iot/bootloader/preloader/platform/mt6735/src/SecLib.a(seclib_boot.o) (g_cust)
/xspace/OrangePi/MTK/OrangePi_4G-iot/bootloader/preloader/platform/mt6735/src/SecLib.a(seclib_secroimg.o)
                              /xspace/OrangePi/MTK/OrangePi_4G-iot/output//obj/sec_secroimg.o (seclib_secroimg_read)
/xspace/OrangePi/MTK/OrangePi_4G-iot/bootloader/preloader/platform/mt6735/src/SecLib.a(seclib_sej_export.o)
                              /xspace/OrangePi/MTK/OrangePi_4G-iot/bootloader/preloader/platform/mt6735/src/SecLib.a(seclib.o) (sp_read_swotp)
/xspace/OrangePi/MTK/OrangePi_4G-iot/bootloader/preloader/platform/mt6735/src/SecLib.a(seclib_util.o)
                              /xspace/OrangePi/MTK/OrangePi_4G-iot/output//obj/sec.o (get_sec_cfg_cnt_size)
/xspace/OrangePi/MTK/OrangePi_4G-iot/bootloader/preloader/platform/mt6735/src/SecLib.a(sha256.o)
                              /xspace/OrangePi/MTK/OrangePi_4G-iot/bootloader/preloader/platform/mt6735/src/SecLib.a(seclib_boot.o) (sha256_init)
/xspace/OrangePi/MTK/OrangePi_4G-iot/bootloader/preloader/platform/mt6735/src/SecLib.a(rsa2048.o)
                              /xspace/OrangePi/MTK/OrangePi_4G-iot/bootloader/preloader/platform/mt6735/src/SecLib.a(seclib_boot.o) (RSADecryption65537)
/xspace/OrangePi/MTK/OrangePi_4G-iot/bootloader/preloader/platform/mt6735/src/SecLib.a(seccfg_crypto.o)
                              /xspace/OrangePi/MTK/OrangePi_4G-iot/bootloader/preloader/platform/mt6735/src/SecLib.a(seclib.o) (get_seccfg_cipher_len)
/xspace/OrangePi/MTK/OrangePi_4G-iot/bootloader/preloader/platform/mt6735/src/security/auth/DaVerifyLib.a(stdlib.o)
                              /xspace/OrangePi/MTK/OrangePi_4G-iot/bootloader/preloader/platform/mt6735/src/SecLib.a(rsa2048.o) (malloc)
/xspace/OrangePi/MTK/OrangePi_4G-iot/bootloader/preloader/platform/mt6735/src/SecPlat.a(efuse.o)
                              /xspace/OrangePi/MTK/OrangePi_4G-iot/output//obj/download.o (seclib_sbc_enabled)
/xspace/OrangePi/MTK/OrangePi_4G-iot/bootloader/preloader/platform/mt6735/src/SecPlat.a(gcpu.o)
                              /xspace/OrangePi/MTK/OrangePi_4G-iot/output//obj/tz_init.o (crypto_hw_secure)
/xspace/OrangePi/MTK/OrangePi_4G-iot/bootloader/preloader/platform/mt6735/src/SecPlat.a(meta.o)
                              /xspace/OrangePi/MTK/OrangePi_4G-iot/output//obj/main.o (seclib_brom_meta_mode)
/xspace/OrangePi/MTK/OrangePi_4G-iot/bootloader/preloader/platform/mt6735/src/SecPlat.a(sec_boot_tz_trustonic.o)
                              /xspace/OrangePi/MTK/OrangePi_4G-iot/output//obj/tz_init.o (trustonic_tee_verify)
/xspace/OrangePi/MTK/OrangePi_4G-iot/bootloader/preloader/platform/mt6735/src/SecPlat.a(seclib_region.o)
                              /xspace/OrangePi/MTK/OrangePi_4G-iot/output//obj/sec_region.o (seclib_region_check)
/xspace/OrangePi/MTK/OrangePi_4G-iot/bootloader/preloader/platform/mt6735/src/SecPlat.a(sej_hk.o)
                              /xspace/OrangePi/MTK/OrangePi_4G-iot/bootloader/preloader/platform/mt6735/src/SecLib.a(seclib_sej_export.o) (SEJ_V3_Init)
/xspace/OrangePi/MTK/OrangePi_4G-iot/bootloader/preloader/platform/mt6735/src/SecPlat.a(sej_sk.o)
                              /xspace/OrangePi/MTK/OrangePi_4G-iot/bootloader/preloader/platform/mt6735/src/SecLib.a(seclib_sej_export.o) (sej_set_key)
/xspace/OrangePi/MTK/OrangePi_4G-iot/bootloader/preloader/platform/mt6735/src/SecPlat.a(sec_boot_tz_common.o)
                              /xspace/OrangePi/MTK/OrangePi_4G-iot/bootloader/preloader/platform/mt6735/src/SecPlat.a(sec_boot_tz_trustonic.o) (verify_mtee_img_hdr)
/xspace/OrangePi/MTK/OrangePi_4G-iot/bootloader/preloader/platform/mt6735/src/security/auth/DaVerifyLib.a(sha1.o)
                              /xspace/OrangePi/MTK/OrangePi_4G-iot/bootloader/preloader/platform/mt6735/src/SecPlat.a(sej_sk.o) (sha1)

Discarded input sections

 .text          0x00000000        0x0 /xspace/OrangePi/MTK/OrangePi_4G-iot/output//obj/addr_trans.o
 .data          0x00000000        0x0 /xspace/OrangePi/MTK/OrangePi_4G-iot/output//obj/addr_trans.o
 .bss           0x00000000        0x0 /xspace/OrangePi/MTK/OrangePi_4G-iot/output//obj/addr_trans.o
 .text.virt_to_phys_addr
                0x00000000       0xa4 /xspace/OrangePi/MTK/OrangePi_4G-iot/output//obj/addr_trans.o
 .text.phys_to_virt_addr
                0x00000000       0x70 /xspace/OrangePi/MTK/OrangePi_4G-iot/output//obj/addr_trans.o
 .note.GNU-stack
                0x00000000        0x0 /xspace/OrangePi/MTK/OrangePi_4G-iot/output//obj/addr_trans.o
 .text          0x00000000        0x0 /xspace/OrangePi/MTK/OrangePi_4G-iot/output//obj/blkdev.o
 .data          0x00000000        0x0 /xspace/OrangePi/MTK/OrangePi_4G-iot/output//obj/blkdev.o
 .bss           0x00000000        0x0 /xspace/OrangePi/MTK/OrangePi_4G-iot/output//obj/blkdev.o
 .text.blkdev_bread
                0x00000000        0xe /xspace/OrangePi/MTK/OrangePi_4G-iot/output//obj/blkdev.o
 .text.blkdev_bwrite
                0x00000000        0xe /xspace/OrangePi/MTK/OrangePi_4G-iot/output//obj/blkdev.o
 .note.GNU-stack
                0x00000000        0x0 /xspace/OrangePi/MTK/OrangePi_4G-iot/output//obj/blkdev.o
 .text          0x00000000        0x0 /xspace/OrangePi/MTK/OrangePi_4G-iot/output//obj/circbuf.o
 .data          0x00000000        0x0 /xspace/OrangePi/MTK/OrangePi_4G-iot/output//obj/circbuf.o
 .bss           0x00000000        0x0 /xspace/OrangePi/MTK/OrangePi_4G-iot/output//obj/circbuf.o
 .note.GNU-stack
                0x00000000        0x0 /xspace/OrangePi/MTK/OrangePi_4G-iot/output//obj/circbuf.o
 .text          0x00000000        0x0 /xspace/OrangePi/MTK/OrangePi_4G-iot/output//obj/clkbuf_ctl.o
 .data          0x00000000        0x0 /xspace/OrangePi/MTK/OrangePi_4G-iot/output//obj/clkbuf_ctl.o
 .bss           0x00000000        0x0 /xspace/OrangePi/MTK/OrangePi_4G-iot/output//obj/clkbuf_ctl.o
 .note.GNU-stack
                0x00000000        0x0 /xspace/OrangePi/MTK/OrangePi_4G-iot/output//obj/clkbuf_ctl.o
 .text          0x00000000        0x0 /xspace/OrangePi/MTK/OrangePi_4G-iot/output//obj/cust_msdc.o
 .data          0x00000000        0x0 /xspace/OrangePi/MTK/OrangePi_4G-iot/output//obj/cust_msdc.o
 .bss           0x00000000        0x0 /xspace/OrangePi/MTK/OrangePi_4G-iot/output//obj/cust_msdc.o
 .note.GNU-stack
                0x00000000        0x0 /xspace/OrangePi/MTK/OrangePi_4G-iot/output//obj/cust_msdc.o
 .text          0x00000000        0x0 /xspace/OrangePi/MTK/OrangePi_4G-iot/output//obj/device_apc.o
 .data          0x00000000        0x0 /xspace/OrangePi/MTK/OrangePi_4G-iot/output//obj/device_apc.o
 .bss           0x00000000        0x0 /xspace/OrangePi/MTK/OrangePi_4G-iot/output//obj/device_apc.o
 .note.GNU-stack
                0x00000000        0x0 /xspace/OrangePi/MTK/OrangePi_4G-iot/output//obj/device_apc.o
 .text          0x00000000        0x0 /xspace/OrangePi/MTK/OrangePi_4G-iot/output//obj/div0.o
 .data          0x00000000        0x0 /xspace/OrangePi/MTK/OrangePi_4G-iot/output//obj/div0.o
 .bss           0x00000000        0x0 /xspace/OrangePi/MTK/OrangePi_4G-iot/output//obj/div0.o
 .note.GNU-stack
                0x00000000        0x0 /xspace/OrangePi/MTK/OrangePi_4G-iot/output//obj/div0.o
 .text          0x00000000        0x0 /xspace/OrangePi/MTK/OrangePi_4G-iot/output//obj/download.o
 .data          0x00000000        0x0 /xspace/OrangePi/MTK/OrangePi_4G-iot/output//obj/download.o
 .bss           0x00000000        0x0 /xspace/OrangePi/MTK/OrangePi_4G-iot/output//obj/download.o
 .note.GNU-stack
                0x00000000        0x0 /xspace/OrangePi/MTK/OrangePi_4G-iot/output//obj/download.o
 .text          0x00000000        0x0 /xspace/OrangePi/MTK/OrangePi_4G-iot/output//obj/dram_buffer.o
 .data          0x00000000        0x0 /xspace/OrangePi/MTK/OrangePi_4G-iot/output//obj/dram_buffer.o
 .bss           0x00000000        0x0 /xspace/OrangePi/MTK/OrangePi_4G-iot/output//obj/dram_buffer.o
 .note.GNU-stack
                0x00000000        0x0 /xspace/OrangePi/MTK/OrangePi_4G-iot/output//obj/dram_buffer.o
 .text          0x00000000        0x0 /xspace/OrangePi/MTK/OrangePi_4G-iot/output//obj/dramc_calib.o
 .data          0x00000000        0x0 /xspace/OrangePi/MTK/OrangePi_4G-iot/output//obj/dramc_calib.o
 .bss           0x00000000        0x0 /xspace/OrangePi/MTK/OrangePi_4G-iot/output//obj/dramc_calib.o
 .note.GNU-stack
                0x00000000        0x0 /xspace/OrangePi/MTK/OrangePi_4G-iot/output//obj/dramc_calib.o
 .text          0x00000000        0x0 /xspace/OrangePi/MTK/OrangePi_4G-iot/output//obj/dramc_dle_cal.o
 .data          0x00000000       0x1c /xspace/OrangePi/MTK/OrangePi_4G-iot/output//obj/dramc_dle_cal.o
 .bss           0x00000000        0x0 /xspace/OrangePi/MTK/OrangePi_4G-iot/output//obj/dramc_dle_cal.o
 .text.dramc_dma_test
                0x00000000       0x78 /xspace/OrangePi/MTK/OrangePi_4G-iot/output//obj/dramc_dle_cal.o
 .text.ett_print_dle_before_each_round_of_loop_zero
                0x00000000        0x2 /xspace/OrangePi/MTK/OrangePi_4G-iot/output//obj/dramc_dle_cal.o
 .text.ett_print_dle_after_each_round_of_loop_zero
                0x00000000       0x10 /xspace/OrangePi/MTK/OrangePi_4G-iot/output//obj/dramc_dle_cal.o
 .text.ett_calc_dle_opt_value
                0x00000000        0x2 /xspace/OrangePi/MTK/OrangePi_4G-iot/output//obj/dramc_dle_cal.o
 .text.dle_factor_handler
                0x00000000       0xa0 /xspace/OrangePi/MTK/OrangePi_4G-iot/output//obj/dramc_dle_cal.o
 .text.ett_print_dle_before_start_loop_zero
                0x00000000       0x2c /xspace/OrangePi/MTK/OrangePi_4G-iot/output//obj/dramc_dle_cal.o
 .text.ett_print_dle_after_finish_loop_n
                0x00000000       0x10 /xspace/OrangePi/MTK/OrangePi_4G-iot/output//obj/dramc_dle_cal.o
 .text.ett_print_dle_result
                0x00000000       0x6c /xspace/OrangePi/MTK/OrangePi_4G-iot/output//obj/dramc_dle_cal.o
 .text.ett_print_dle_banner
                0x00000000       0x64 /xspace/OrangePi/MTK/OrangePi_4G-iot/output//obj/dramc_dle_cal.o
 .text.dramc_ta1
                0x00000000       0xcc /xspace/OrangePi/MTK/OrangePi_4G-iot/output//obj/dramc_dle_cal.o
 .text.dram_driving_factor_handler
                0x00000000        0x4 /xspace/OrangePi/MTK/OrangePi_4G-iot/output//obj/dramc_dle_cal.o
 .text.dqso_dly_factor_handler
                0x00000000       0x84 /xspace/OrangePi/MTK/OrangePi_4G-iot/output//obj/dramc_dle_cal.o
 .text.ett_print_dram_driving
                0x00000000        0x2 /xspace/OrangePi/MTK/OrangePi_4G-iot/output//obj/dramc_dle_cal.o
 .text.do_dle_calib
                0x00000000       0xcc /xspace/OrangePi/MTK/OrangePi_4G-iot/output//obj/dramc_dle_cal.o
 .text.ucDram_Register_Write
                0x00000000       0x1a /xspace/OrangePi/MTK/OrangePi_4G-iot/output//obj/dramc_dle_cal.o
 .text.ucDram_Register_Read
                0x00000000       0x22 /xspace/OrangePi/MTK/OrangePi_4G-iot/output//obj/dramc_dle_cal.o
 .bss.dle_result
                0x00000000       0x40 /xspace/OrangePi/MTK/OrangePi_4G-iot/output//obj/dramc_dle_cal.o
 .data.rel.local.opt_dle_value
                0x00000000        0x4 /xspace/OrangePi/MTK/OrangePi_4G-iot/output//obj/dramc_dle_cal.o
 .data.rel.local.dle_tbl
                0x00000000       0x44 /xspace/OrangePi/MTK/OrangePi_4G-iot/output//obj/dramc_dle_cal.o
 .bss.global_dle_value
                0x00000000        0x4 /xspace/OrangePi/MTK/OrangePi_4G-iot/output//obj/dramc_dle_cal.o
 .data.rel.rx_tuning_factors
                0x00000000       0x14 /xspace/OrangePi/MTK/OrangePi_4G-iot/output//obj/dramc_dle_cal.o
 .rodata.str1.1
                0x00000000      0x15d /xspace/OrangePi/MTK/OrangePi_4G-iot/output//obj/dramc_dle_cal.o
 .data.rel.local.dram_driving_tbl
                0x00000000        0x8 /xspace/OrangePi/MTK/OrangePi_4G-iot/output//obj/dramc_dle_cal.o
 .data.rel.dle_test_cases
                0x00000000       0x10 /xspace/OrangePi/MTK/OrangePi_4G-iot/output//obj/dramc_dle_cal.o
 .data.rel.dle_tuning_factors
                0x00000000       0x14 /xspace/OrangePi/MTK/OrangePi_4G-iot/output//obj/dramc_dle_cal.o
 .data.rel.local.driving_tbl
                0x00000000       0x18 /xspace/OrangePi/MTK/OrangePi_4G-iot/output//obj/dramc_dle_cal.o
 .note.GNU-stack
                0x00000000        0x0 /xspace/OrangePi/MTK/OrangePi_4G-iot/output//obj/dramc_dle_cal.o
 .text          0x00000000        0x0 /xspace/OrangePi/MTK/OrangePi_4G-iot/output//obj/dramc_dqs_gw.o
 .bss           0x00000000        0x0 /xspace/OrangePi/MTK/OrangePi_4G-iot/output//obj/dramc_dqs_gw.o
 .text.ett_print_dqs_gw_after_finish_loop_n
                0x00000000       0x10 /xspace/OrangePi/MTK/OrangePi_4G-iot/output//obj/dramc_dqs_gw.o
 .text.do_dqs_gw_calib_1
                0x00000000       0x24 /xspace/OrangePi/MTK/OrangePi_4G-iot/output//obj/dramc_dqs_gw.o
 .note.GNU-stack
                0x00000000        0x0 /xspace/OrangePi/MTK/OrangePi_4G-iot/output//obj/dramc_dqs_gw.o
 .data          0x00000000        0x0 /xspace/OrangePi/MTK/OrangePi_4G-iot/output//obj/eabi.o
 .bss           0x00000000        0x0 /xspace/OrangePi/MTK/OrangePi_4G-iot/output//obj/eabi.o
 .data          0x00000000        0x0 /xspace/OrangePi/MTK/OrangePi_4G-iot/output//obj/eabi_idiv.o
 .bss           0x00000000        0x0 /xspace/OrangePi/MTK/OrangePi_4G-iot/output//obj/eabi_idiv.o
 .data          0x00000000        0x0 /xspace/OrangePi/MTK/OrangePi_4G-iot/output//obj/eabi_uldivmod.o
 .bss           0x00000000        0x0 /xspace/OrangePi/MTK/OrangePi_4G-iot/output//obj/eabi_uldivmod.o
 .text          0x00000000        0x0 /xspace/OrangePi/MTK/OrangePi_4G-iot/output//obj/efi.o
 .data          0x00000000        0x0 /xspace/OrangePi/MTK/OrangePi_4G-iot/output//obj/efi.o
 .bss           0x00000000        0x0 /xspace/OrangePi/MTK/OrangePi_4G-iot/output//obj/efi.o
 .note.GNU-stack
                0x00000000        0x0 /xspace/OrangePi/MTK/OrangePi_4G-iot/output//obj/efi.o
 .text          0x00000000        0x0 /xspace/OrangePi/MTK/OrangePi_4G-iot/output//obj/emi.o
 .data          0x00000000        0x0 /xspace/OrangePi/MTK/OrangePi_4G-iot/output//obj/emi.o
 .bss           0x00000000        0x0 /xspace/OrangePi/MTK/OrangePi_4G-iot/output//obj/emi.o
 .note.GNU-stack
                0x00000000        0x0 /xspace/OrangePi/MTK/OrangePi_4G-iot/output//obj/emi.o
 .text          0x00000000        0x0 /xspace/OrangePi/MTK/OrangePi_4G-iot/output//obj/fan5405.o
 .data          0x00000000        0x0 /xspace/OrangePi/MTK/OrangePi_4G-iot/output//obj/fan5405.o
 .bss           0x00000000        0x0 /xspace/OrangePi/MTK/OrangePi_4G-iot/output//obj/fan5405.o
 .text.fan5405_read_byte
                0x00000000       0x28 /xspace/OrangePi/MTK/OrangePi_4G-iot/output//obj/fan5405.o
 .text.fan5405_read_interface
                0x00000000       0x26 /xspace/OrangePi/MTK/OrangePi_4G-iot/output//obj/fan5405.o
 .text.fan5405_config_interface
                0x00000000       0x3c /xspace/OrangePi/MTK/OrangePi_4G-iot/output//obj/fan5405.o
 .text.fan5405_get_boost_status
                0x00000000       0x1c /xspace/OrangePi/MTK/OrangePi_4G-iot/output//obj/fan5405.o
 .text.fan5405_set_opa_mode
                0x00000000        0xc /xspace/OrangePi/MTK/OrangePi_4G-iot/output//obj/fan5405.o
 .text.fan5405_set_otg_en
                0x00000000        0xc /xspace/OrangePi/MTK/OrangePi_4G-iot/output//obj/fan5405.o
 .bss.g_fan5405_log_en
                0x00000000        0x4 /xspace/OrangePi/MTK/OrangePi_4G-iot/output//obj/fan5405.o
 .bss.fan5405_reg
                0x00000000        0x7 /xspace/OrangePi/MTK/OrangePi_4G-iot/output//obj/fan5405.o
 .note.GNU-stack
                0x00000000        0x0 /xspace/OrangePi/MTK/OrangePi_4G-iot/output//obj/fan5405.o
 .text          0x00000000        0x0 /xspace/OrangePi/MTK/OrangePi_4G-iot/output//obj/fpc_sw_repair2sw.o
 .data          0x00000000        0x0 /xspace/OrangePi/MTK/OrangePi_4G-iot/output//obj/fpc_sw_repair2sw.o
 .bss           0x00000000        0x0 /xspace/OrangePi/MTK/OrangePi_4G-iot/output//obj/fpc_sw_repair2sw.o
 .text.repair_sram
                0x00000000      0x400 /xspace/OrangePi/MTK/OrangePi_4G-iot/output//obj/fpc_sw_repair2sw.o
 .rodata.str1.1
                0x00000000       0x35 /xspace/OrangePi/MTK/OrangePi_4G-iot/output//obj/fpc_sw_repair2sw.o
 .note.GNU-stack
                0x00000000        0x0 /xspace/OrangePi/MTK/OrangePi_4G-iot/output//obj/fpc_sw_repair2sw.o
 .text          0x00000000        0x0 /xspace/OrangePi/MTK/OrangePi_4G-iot/output//obj/gpio.o
 .data          0x00000000        0x0 /xspace/OrangePi/MTK/OrangePi_4G-iot/output//obj/gpio.o
 .bss           0x00000000        0x0 /xspace/OrangePi/MTK/OrangePi_4G-iot/output//obj/gpio.o
 .text.mt_get_gpio_dir_chip
                0x00000000       0x44 /xspace/OrangePi/MTK/OrangePi_4G-iot/output//obj/gpio.o
 .text.mt_get_gpio_pull_enable_chip
                0x00000000       0x4c /xspace/OrangePi/MTK/OrangePi_4G-iot/output//obj/gpio.o
 .text.mt_set_gpio_smt_chip
                0x00000000       0x54 /xspace/OrangePi/MTK/OrangePi_4G-iot/output//obj/gpio.o
 .text.mt_get_gpio_smt_chip
                0x00000000       0x4c /xspace/OrangePi/MTK/OrangePi_4G-iot/output//obj/gpio.o
 .text.mt_set_gpio_ies_chip
                0x00000000       0x4c /xspace/OrangePi/MTK/OrangePi_4G-iot/output//obj/gpio.o
 .text.mt_get_gpio_ies_chip
                0x00000000       0x4c /xspace/OrangePi/MTK/OrangePi_4G-iot/output//obj/gpio.o
 .text.mt_get_gpio_pull_select_chip
                0x00000000       0xac /xspace/OrangePi/MTK/OrangePi_4G-iot/output//obj/gpio.o
 .text.mt_get_gpio_out_chip
                0x00000000       0x44 /xspace/OrangePi/MTK/OrangePi_4G-iot/output//obj/gpio.o
 .text.mt_get_gpio_in_chip
                0x00000000       0x44 /xspace/OrangePi/MTK/OrangePi_4G-iot/output//obj/gpio.o
 .text.mt_get_gpio_mode_chip
                0x00000000       0x3c /xspace/OrangePi/MTK/OrangePi_4G-iot/output//obj/gpio.o
 .text.mt_get_gpio_dir
                0x00000000       0x1a /xspace/OrangePi/MTK/OrangePi_4G-iot/output//obj/gpio.o
 .text.mt_get_gpio_pull_enable
                0x00000000       0x1a /xspace/OrangePi/MTK/OrangePi_4G-iot/output//obj/gpio.o
 .text.mt_get_gpio_pull_select
                0x00000000       0x1a /xspace/OrangePi/MTK/OrangePi_4G-iot/output//obj/gpio.o
 .text.mt_set_gpio_smt
                0x00000000       0x1c /xspace/OrangePi/MTK/OrangePi_4G-iot/output//obj/gpio.o
 .text.mt_get_gpio_smt
                0x00000000       0x1a /xspace/OrangePi/MTK/OrangePi_4G-iot/output//obj/gpio.o
 .text.mt_set_gpio_ies
                0x00000000       0x1c /xspace/OrangePi/MTK/OrangePi_4G-iot/output//obj/gpio.o
 .text.mt_get_gpio_ies
                0x00000000       0x1a /xspace/OrangePi/MTK/OrangePi_4G-iot/output//obj/gpio.o
 .text.mt_get_gpio_out
                0x00000000       0x1a /xspace/OrangePi/MTK/OrangePi_4G-iot/output//obj/gpio.o
 .text.mt_get_gpio_in
                0x00000000       0x1a /xspace/OrangePi/MTK/OrangePi_4G-iot/output//obj/gpio.o
 .text.mt_get_gpio_mode
                0x00000000       0x1a /xspace/OrangePi/MTK/OrangePi_4G-iot/output//obj/gpio.o
 .data.DRV_addr
                0x00000000      0x318 /xspace/OrangePi/MTK/OrangePi_4G-iot/output//obj/gpio.o
 .data.DIN_addr
                0x00000000      0x318 /xspace/OrangePi/MTK/OrangePi_4G-iot/output//obj/gpio.o
 .data.DIN_offset
                0x00000000       0xc6 /xspace/OrangePi/MTK/OrangePi_4G-iot/output//obj/gpio.o
 .data.IES_offset
                0x00000000       0xc6 /xspace/OrangePi/MTK/OrangePi_4G-iot/output//obj/gpio.o
 .data.TDSEL_addr
                0x00000000      0x318 /xspace/OrangePi/MTK/OrangePi_4G-iot/output//obj/gpio.o
 .data.DRV_offset
                0x00000000       0xc6 /xspace/OrangePi/MTK/OrangePi_4G-iot/output//obj/gpio.o
 .data.IES_addr
                0x00000000      0x318 /xspace/OrangePi/MTK/OrangePi_4G-iot/output//obj/gpio.o
 .data.SMT_addr
                0x00000000      0x318 /xspace/OrangePi/MTK/OrangePi_4G-iot/output//obj/gpio.o
 .data.TDSEL_offset
                0x00000000       0xc6 /xspace/OrangePi/MTK/OrangePi_4G-iot/output//obj/gpio.o
 .data.SMT_offset
                0x00000000       0xc6 /xspace/OrangePi/MTK/OrangePi_4G-iot/output//obj/gpio.o
 .data.RDSEL_addr
                0x00000000      0x318 /xspace/OrangePi/MTK/OrangePi_4G-iot/output//obj/gpio.o
 .data.RDSEL_offset
                0x00000000       0xc6 /xspace/OrangePi/MTK/OrangePi_4G-iot/output//obj/gpio.o
 .note.GNU-stack
                0x00000000        0x0 /xspace/OrangePi/MTK/OrangePi_4G-iot/output//obj/gpio.o
 .text          0x00000000        0x0 /xspace/OrangePi/MTK/OrangePi_4G-iot/output//obj/handshake_uart.o
 .bss           0x00000000        0x0 /xspace/OrangePi/MTK/OrangePi_4G-iot/output//obj/handshake_uart.o
 .note.GNU-stack
                0x00000000        0x0 /xspace/OrangePi/MTK/OrangePi_4G-iot/output//obj/handshake_uart.o
 .text          0x00000000        0x0 /xspace/OrangePi/MTK/OrangePi_4G-iot/output//obj/handshake_usb.o
 .bss           0x00000000        0x0 /xspace/OrangePi/MTK/OrangePi_4G-iot/output//obj/handshake_usb.o
 .note.GNU-stack
                0x00000000        0x0 /xspace/OrangePi/MTK/OrangePi_4G-iot/output//obj/handshake_usb.o
 .text          0x00000000       0x10 /xspace/OrangePi/MTK/OrangePi_4G-iot/output//obj/hotplug.o
 .data          0x00000000        0x0 /xspace/OrangePi/MTK/OrangePi_4G-iot/output//obj/hotplug.o
 .bss           0x00000000        0x0 /xspace/OrangePi/MTK/OrangePi_4G-iot/output//obj/hotplug.o
 .text          0x00000000        0x0 /xspace/OrangePi/MTK/OrangePi_4G-iot/output//obj/i2c.o
 .data          0x00000000        0x0 /xspace/OrangePi/MTK/OrangePi_4G-iot/output//obj/i2c.o
 .bss           0x00000000        0x0 /xspace/OrangePi/MTK/OrangePi_4G-iot/output//obj/i2c.o
 .text.i2c_read
                0x00000000       0x44 /xspace/OrangePi/MTK/OrangePi_4G-iot/output//obj/i2c.o
 .bss.i2c_port  0x00000000       0x70 /xspace/OrangePi/MTK/OrangePi_4G-iot/output//obj/i2c.o
 .note.GNU-stack
                0x00000000        0x0 /xspace/OrangePi/MTK/OrangePi_4G-iot/output//obj/i2c.o
 .text          0x00000000        0x0 /xspace/OrangePi/MTK/OrangePi_4G-iot/output//obj/init.o
 .data          0x00000000        0x0 /xspace/OrangePi/MTK/OrangePi_4G-iot/output//obj/init.o
 .bss           0x00000000        0x0 /xspace/OrangePi/MTK/OrangePi_4G-iot/output//obj/init.o
 .text          0x00000000        0x0 /xspace/OrangePi/MTK/OrangePi_4G-iot/output//obj/keypad.o
 .data          0x00000000        0x0 /xspace/OrangePi/MTK/OrangePi_4G-iot/output//obj/keypad.o
 .bss           0x00000000        0x0 /xspace/OrangePi/MTK/OrangePi_4G-iot/output//obj/keypad.o
 .text.disable_PMIC_kpd_clock
                0x00000000        0x2 /xspace/OrangePi/MTK/OrangePi_4G-iot/output//obj/keypad.o
 .note.GNU-stack
                0x00000000        0x0 /xspace/OrangePi/MTK/OrangePi_4G-iot/output//obj/keypad.o
 .text          0x00000000        0x0 /xspace/OrangePi/MTK/OrangePi_4G-iot/output//obj/main.o
 .data          0x00000000        0x0 /xspace/OrangePi/MTK/OrangePi_4G-iot/output//obj/main.o
 .bss           0x00000000        0x0 /xspace/OrangePi/MTK/OrangePi_4G-iot/output//obj/main.o
 .note.GNU-stack
                0x00000000        0x0 /xspace/OrangePi/MTK/OrangePi_4G-iot/output//obj/main.o
 .text          0x00000000        0x0 /xspace/OrangePi/MTK/OrangePi_4G-iot/output//obj/memory.o
 .data          0x00000000        0x0 /xspace/OrangePi/MTK/OrangePi_4G-iot/output//obj/memory.o
 .bss           0x00000000        0x0 /xspace/OrangePi/MTK/OrangePi_4G-iot/output//obj/memory.o
 .note.GNU-stack
                0x00000000        0x0 /xspace/OrangePi/MTK/OrangePi_4G-iot/output//obj/memory.o
 .text          0x00000000       0xbc /xspace/OrangePi/MTK/OrangePi_4G-iot/output//obj/memory_test.o
 .data          0x00000000        0x0 /xspace/OrangePi/MTK/OrangePi_4G-iot/output//obj/memory_test.o
 .bss           0x00000000        0x0 /xspace/OrangePi/MTK/OrangePi_4G-iot/output//obj/memory_test.o
 .text          0x00000000        0x0 /xspace/OrangePi/MTK/OrangePi_4G-iot/output//obj/mmc_common_inter.o
 .data          0x00000000        0x0 /xspace/OrangePi/MTK/OrangePi_4G-iot/output//obj/mmc_common_inter.o
 .bss           0x00000000        0x0 /xspace/OrangePi/MTK/OrangePi_4G-iot/output//obj/mmc_common_inter.o
 .text.mmc_get_boot_part
                0x00000000       0x4c /xspace/OrangePi/MTK/OrangePi_4G-iot/output//obj/mmc_common_inter.o
 .text.mmc_bread_boot
                0x00000000       0x3a /xspace/OrangePi/MTK/OrangePi_4G-iot/output//obj/mmc_common_inter.o
 .text.mmc_bwrite_boot
                0x00000000       0x3a /xspace/OrangePi/MTK/OrangePi_4G-iot/output//obj/mmc_common_inter.o
 .rodata.str1.1
                0x00000000       0x20 /xspace/OrangePi/MTK/OrangePi_4G-iot/output//obj/mmc_common_inter.o
 .note.GNU-stack
                0x00000000        0x0 /xspace/OrangePi/MTK/OrangePi_4G-iot/output//obj/mmc_common_inter.o
 .text          0x00000000        0x0 /xspace/OrangePi/MTK/OrangePi_4G-iot/output//obj/mmc_core.o
 .data          0x00000000        0x0 /xspace/OrangePi/MTK/OrangePi_4G-iot/output//obj/mmc_core.o
 .bss           0x00000000        0x0 /xspace/OrangePi/MTK/OrangePi_4G-iot/output//obj/mmc_core.o
 .text.mmc_go_irq_state
                0x00000000       0x2e /xspace/OrangePi/MTK/OrangePi_4G-iot/output//obj/mmc_core.o
 .text.mmc_sleep_awake
                0x00000000       0x40 /xspace/OrangePi/MTK/OrangePi_4G-iot/output//obj/mmc_core.o
 .text.mmc_send_tuning_blk
                0x00000000       0x58 /xspace/OrangePi/MTK/OrangePi_4G-iot/output//obj/mmc_core.o
 .text.mmc_send_write_prot
                0x00000000       0x68 /xspace/OrangePi/MTK/OrangePi_4G-iot/output//obj/mmc_core.o
 .text.mmc_send_write_prot_type
                0x00000000       0x68 /xspace/OrangePi/MTK/OrangePi_4G-iot/output//obj/mmc_core.o
 .text.mmc_erase_start
                0x00000000       0x44 /xspace/OrangePi/MTK/OrangePi_4G-iot/output//obj/mmc_core.o
 .text.mmc_erase_end
                0x00000000       0x44 /xspace/OrangePi/MTK/OrangePi_4G-iot/output//obj/mmc_core.o
 .text.mmc_erase
                0x00000000       0x72 /xspace/OrangePi/MTK/OrangePi_4G-iot/output//obj/mmc_core.o
 .text.mmc_get_wpg_size
                0x00000000       0x42 /xspace/OrangePi/MTK/OrangePi_4G-iot/output//obj/mmc_core.o
 .text.mmc_switch_card_timing
                0x00000000      0x16c /xspace/OrangePi/MTK/OrangePi_4G-iot/output//obj/mmc_core.o
 .text.mmc_set_ext_csd
                0x00000000       0x44 /xspace/OrangePi/MTK/OrangePi_4G-iot/output//obj/mmc_core.o
 .text.mmc_set_erase_grp_def
                0x00000000       0x2a /xspace/OrangePi/MTK/OrangePi_4G-iot/output//obj/mmc_core.o
 .text.mmc_set_gp_size
                0x00000000       0x6c /xspace/OrangePi/MTK/OrangePi_4G-iot/output//obj/mmc_core.o
 .text.mmc_set_enh_size
                0x00000000       0x52 /xspace/OrangePi/MTK/OrangePi_4G-iot/output//obj/mmc_core.o
 .text.mmc_set_enh_start_addr
                0x00000000       0x44 /xspace/OrangePi/MTK/OrangePi_4G-iot/output//obj/mmc_core.o
 .text.mmc_set_boot_bus
                0x00000000       0x22 /xspace/OrangePi/MTK/OrangePi_4G-iot/output//obj/mmc_core.o
 .text.mmc_set_part_config
                0x00000000       0x20 /xspace/OrangePi/MTK/OrangePi_4G-iot/output//obj/mmc_core.o
 .text.mmc_set_part_attr
                0x00000000       0x34 /xspace/OrangePi/MTK/OrangePi_4G-iot/output//obj/mmc_core.o
 .text.mmc_set_part_compl
                0x00000000       0x1a /xspace/OrangePi/MTK/OrangePi_4G-iot/output//obj/mmc_core.o
 .rodata        0x00000000        0x4 /xspace/OrangePi/MTK/OrangePi_4G-iot/output//obj/mmc_core.o
 .note.GNU-stack
                0x00000000        0x0 /xspace/OrangePi/MTK/OrangePi_4G-iot/output//obj/mmc_core.o
 .text          0x00000000        0x0 /xspace/OrangePi/MTK/OrangePi_4G-iot/output//obj/mmc_rpmb.o
 .data          0x00000000        0x0 /xspace/OrangePi/MTK/OrangePi_4G-iot/output//obj/mmc_rpmb.o
 .bss           0x00000000        0x0 /xspace/OrangePi/MTK/OrangePi_4G-iot/output//obj/mmc_rpmb.o
 .text.mmc_rpmb_send_command.isra.0
                0x00000000       0x56 /xspace/OrangePi/MTK/OrangePi_4G-iot/output//obj/mmc_rpmb.o
 .text.mmc_rpmb_start_req
                0x00000000       0x82 /xspace/OrangePi/MTK/OrangePi_4G-iot/output//obj/mmc_rpmb.o
 .text.cpu_to_be16p
                0x00000000        0x8 /xspace/OrangePi/MTK/OrangePi_4G-iot/output//obj/mmc_rpmb.o
 .text.mmc_rpmb_pre_frame
                0x00000000       0x82 /xspace/OrangePi/MTK/OrangePi_4G-iot/output//obj/mmc_rpmb.o
 .text.cpu_to_be32p
                0x00000000        0x6 /xspace/OrangePi/MTK/OrangePi_4G-iot/output//obj/mmc_rpmb.o
 .text.mmc_rpmb_post_frame
                0x00000000       0x4e /xspace/OrangePi/MTK/OrangePi_4G-iot/output//obj/mmc_rpmb.o
 .text.mmc_rpmb_check_result
                0x00000000        0x2 /xspace/OrangePi/MTK/OrangePi_4G-iot/output//obj/mmc_rpmb.o
 .text.mmc_rpmb_get_wc
                0x00000000       0x8e /xspace/OrangePi/MTK/OrangePi_4G-iot/output//obj/mmc_rpmb.o
 .text.mmc_rpmb_set_key
                0x00000000       0x8e /xspace/OrangePi/MTK/OrangePi_4G-iot/output//obj/mmc_rpmb.o
 .text.mmc_rpmb_get_size
                0x00000000       0x10 /xspace/OrangePi/MTK/OrangePi_4G-iot/output//obj/mmc_rpmb.o
 .text.mmc_rpmb_get_rel_wr_sec_c
                0x00000000        0xe /xspace/OrangePi/MTK/OrangePi_4G-iot/output//obj/mmc_rpmb.o
 .note.GNU-stack
                0x00000000        0x0 /xspace/OrangePi/MTK/OrangePi_4G-iot/output//obj/mmc_rpmb.o
 .text          0x00000000        0x0 /xspace/OrangePi/MTK/OrangePi_4G-iot/output//obj/msdc.o
 .data          0x00000000        0x0 /xspace/OrangePi/MTK/OrangePi_4G-iot/output//obj/msdc.o
 .bss           0x00000000        0x0 /xspace/OrangePi/MTK/OrangePi_4G-iot/output//obj/msdc.o
 .text.msdc_dump_card_status
                0x00000000        0x2 /xspace/OrangePi/MTK/OrangePi_4G-iot/output//obj/msdc.o
 .text.msdc_dump_ocr_reg
                0x00000000        0x2 /xspace/OrangePi/MTK/OrangePi_4G-iot/output//obj/msdc.o
 .text.msdc_dump_io_resp
                0x00000000        0x2 /xspace/OrangePi/MTK/OrangePi_4G-iot/output//obj/msdc.o
 .text.msdc_dump_rca_resp
                0x00000000        0x2 /xspace/OrangePi/MTK/OrangePi_4G-iot/output//obj/msdc.o
 .text.msdc_dump_register
                0x00000000        0x2 /xspace/OrangePi/MTK/OrangePi_4G-iot/output//obj/msdc.o
 .text.msdc_dump_padctl
                0x00000000        0x2 /xspace/OrangePi/MTK/OrangePi_4G-iot/output//obj/msdc.o
 .text.msdc_set_pin_mode
                0x00000000       0xdc /xspace/OrangePi/MTK/OrangePi_4G-iot/output//obj/msdc.o
 .text.msdc_set_ies
                0x00000000       0x68 /xspace/OrangePi/MTK/OrangePi_4G-iot/output//obj/msdc.o
 .text.msdc_set_sr
                0x00000000      0x190 /xspace/OrangePi/MTK/OrangePi_4G-iot/output//obj/msdc.o
 .text.msdc_set_card_pwr
                0x00000000        0x2 /xspace/OrangePi/MTK/OrangePi_4G-iot/output//obj/msdc.o
 .text.msdc_set_axi_burst_len
                0x00000000       0x36 /xspace/OrangePi/MTK/OrangePi_4G-iot/output//obj/msdc.o
 .text.msdc_set_axi_outstanding
                0x00000000       0x5e /xspace/OrangePi/MTK/OrangePi_4G-iot/output//obj/msdc.o
 .text.msdc_set_autocmd
                0x00000000       0x12 /xspace/OrangePi/MTK/OrangePi_4G-iot/output//obj/msdc.o
 .text.msdc_set_reliable_write
                0x00000000       0x14 /xspace/OrangePi/MTK/OrangePi_4G-iot/output//obj/msdc.o
 .text.msdc_set_autocmd23_feature
                0x00000000       0x54 /xspace/OrangePi/MTK/OrangePi_4G-iot/output//obj/msdc.o
 .text.msdc_intr_mask
                0x00000000       0x10 /xspace/OrangePi/MTK/OrangePi_4G-iot/output//obj/msdc.o
 .text.msdc_brk_cmd
                0x00000000       0x1e /xspace/OrangePi/MTK/OrangePi_4G-iot/output//obj/msdc.o
 .text.msdc_pio_get_sandisk_fwid
                0x00000000       0x78 /xspace/OrangePi/MTK/OrangePi_4G-iot/output//obj/msdc.o
 .text.msdc_pio_send_sandisk_fwid
                0x00000000       0x5c /xspace/OrangePi/MTK/OrangePi_4G-iot/output//obj/msdc.o
 .text.msdc_polling_CD_interrupt
                0x00000000       0x14 /xspace/OrangePi/MTK/OrangePi_4G-iot/output//obj/msdc.o
 .bss.g_msdc2_flash
                0x00000000        0x4 /xspace/OrangePi/MTK/OrangePi_4G-iot/output//obj/msdc.o
 .bss.g_msdc0_io
                0x00000000        0x4 /xspace/OrangePi/MTK/OrangePi_4G-iot/output//obj/msdc.o
 .bss.g_msdc1_io
                0x00000000        0x4 /xspace/OrangePi/MTK/OrangePi_4G-iot/output//obj/msdc.o
 .bss.g_msdc2_io
                0x00000000        0x4 /xspace/OrangePi/MTK/OrangePi_4G-iot/output//obj/msdc.o
 .bss.g_msdc3_io
                0x00000000        0x4 /xspace/OrangePi/MTK/OrangePi_4G-iot/output//obj/msdc.o
 .bss.g_msdc3_flash
                0x00000000        0x4 /xspace/OrangePi/MTK/OrangePi_4G-iot/output//obj/msdc.o
 .bss.g_msdc0_flash
                0x00000000        0x4 /xspace/OrangePi/MTK/OrangePi_4G-iot/output//obj/msdc.o
 .bss.g_msdc1_flash
                0x00000000        0x4 /xspace/OrangePi/MTK/OrangePi_4G-iot/output//obj/msdc.o
 .note.GNU-stack
                0x00000000        0x0 /xspace/OrangePi/MTK/OrangePi_4G-iot/output//obj/msdc.o
 .text          0x00000000        0x0 /xspace/OrangePi/MTK/OrangePi_4G-iot/output//obj/msdc_dma.o
 .data          0x00000000        0x0 /xspace/OrangePi/MTK/OrangePi_4G-iot/output//obj/msdc_dma.o
 .bss           0x00000000        0x0 /xspace/OrangePi/MTK/OrangePi_4G-iot/output//obj/msdc_dma.o
 .text.msdc_queue_buf
                0x00000000       0x16 /xspace/OrangePi/MTK/OrangePi_4G-iot/output//obj/msdc_dma.o
 .text.msdc_set_dma
                0x00000000        0xa /xspace/OrangePi/MTK/OrangePi_4G-iot/output//obj/msdc_dma.o
 .text.msdc_dma_cmd
                0x00000000       0x74 /xspace/OrangePi/MTK/OrangePi_4G-iot/output//obj/msdc_dma.o
 .text.msdc_dma_resume
                0x00000000       0x36 /xspace/OrangePi/MTK/OrangePi_4G-iot/output//obj/msdc_dma.o
 .note.GNU-stack
                0x00000000        0x0 /xspace/OrangePi/MTK/OrangePi_4G-iot/output//obj/msdc_dma.o
 .text          0x00000000        0x0 /xspace/OrangePi/MTK/OrangePi_4G-iot/output//obj/msdc_irq.o
 .data          0x00000000        0x0 /xspace/OrangePi/MTK/OrangePi_4G-iot/output//obj/msdc_irq.o
 .bss           0x00000000        0x0 /xspace/OrangePi/MTK/OrangePi_4G-iot/output//obj/msdc_irq.o
 .text.msdc_irq_deinit
                0x00000000        0x2 /xspace/OrangePi/MTK/OrangePi_4G-iot/output//obj/msdc_irq.o
 .note.GNU-stack
                0x00000000        0x0 /xspace/OrangePi/MTK/OrangePi_4G-iot/output//obj/msdc_irq.o
 .text          0x00000000        0x0 /xspace/OrangePi/MTK/OrangePi_4G-iot/output//obj/msdc_utils.o
 .data          0x00000000        0x0 /xspace/OrangePi/MTK/OrangePi_4G-iot/output//obj/msdc_utils.o
 .bss           0x00000000        0x0 /xspace/OrangePi/MTK/OrangePi_4G-iot/output//obj/msdc_utils.o
 .text.msdc_ntohl
                0x00000000       0x1e /xspace/OrangePi/MTK/OrangePi_4G-iot/output//obj/msdc_utils.o
 .text.msdc_get_field
                0x00000000       0x20 /xspace/OrangePi/MTK/OrangePi_4G-iot/output//obj/msdc_utils.o
 .note.GNU-stack
                0x00000000        0x0 /xspace/OrangePi/MTK/OrangePi_4G-iot/output//obj/msdc_utils.o
 .text          0x00000000        0x0 /xspace/OrangePi/MTK/OrangePi_4G-iot/output//obj/mt6311.o
 .data          0x00000000        0x0 /xspace/OrangePi/MTK/OrangePi_4G-iot/output//obj/mt6311.o
 .bss           0x00000000        0x0 /xspace/OrangePi/MTK/OrangePi_4G-iot/output//obj/mt6311.o
 .text.mt6311_get_reg_value
                0x00000000       0x1c /xspace/OrangePi/MTK/OrangePi_4G-iot/output//obj/mt6311.o
 .text.get_mt6311_i2c_ch_num
                0x00000000        0x4 /xspace/OrangePi/MTK/OrangePi_4G-iot/output//obj/mt6311.o
 .text.ext_buck_vproc_vsel
                0x00000000       0x28 /xspace/OrangePi/MTK/OrangePi_4G-iot/output//obj/mt6311.o
 .text.is_mt6311_sw_ready
                0x00000000       0x14 /xspace/OrangePi/MTK/OrangePi_4G-iot/output//obj/mt6311.o
 .text.is_mt6311_exist
                0x00000000       0x14 /xspace/OrangePi/MTK/OrangePi_4G-iot/output//obj/mt6311.o
 .text.mt6311_vosel
                0x00000000        0x4 /xspace/OrangePi/MTK/OrangePi_4G-iot/output//obj/mt6311.o
 .bss.mt6311_check_point
                0x00000000        0x4 /xspace/OrangePi/MTK/OrangePi_4G-iot/output//obj/mt6311.o
 .bss.g_vproc_vsel_gpio_number
                0x00000000        0x4 /xspace/OrangePi/MTK/OrangePi_4G-iot/output//obj/mt6311.o
 .note.GNU-stack
                0x00000000        0x0 /xspace/OrangePi/MTK/OrangePi_4G-iot/output//obj/mt6311.o
 .text          0x00000000        0x0 /xspace/OrangePi/MTK/OrangePi_4G-iot/output//obj/mt_ptp.o
 .data          0x00000000        0x0 /xspace/OrangePi/MTK/OrangePi_4G-iot/output//obj/mt_ptp.o
 .bss           0x00000000        0x0 /xspace/OrangePi/MTK/OrangePi_4G-iot/output//obj/mt_ptp.o
 .note.GNU-stack
                0x00000000        0x0 /xspace/OrangePi/MTK/OrangePi_4G-iot/output//obj/mt_ptp.o
 .text          0x00000000        0x0 /xspace/OrangePi/MTK/OrangePi_4G-iot/output//obj/partition.o
 .data          0x00000000        0x0 /xspace/OrangePi/MTK/OrangePi_4G-iot/output//obj/partition.o
 .bss           0x00000000        0x0 /xspace/OrangePi/MTK/OrangePi_4G-iot/output//obj/partition.o
 .note.GNU-stack
                0x00000000        0x0 /xspace/OrangePi/MTK/OrangePi_4G-iot/output//obj/partition.o
 .text          0x00000000        0x0 /xspace/OrangePi/MTK/OrangePi_4G-iot/output//obj/platform.o
 .data          0x00000000        0x0 /xspace/OrangePi/MTK/OrangePi_4G-iot/output//obj/platform.o
 .bss           0x00000000        0x0 /xspace/OrangePi/MTK/OrangePi_4G-iot/output//obj/platform.o
 .text.set_to_usb_mode
                0x00000000       0x4c /xspace/OrangePi/MTK/OrangePi_4G-iot/output//obj/platform.o
 .text.set_to_uart_mode
                0x00000000       0x74 /xspace/OrangePi/MTK/OrangePi_4G-iot/output//obj/platform.o
 .text.platform_memory_size
                0x00000000       0x54 /xspace/OrangePi/MTK/OrangePi_4G-iot/output//obj/platform.o
 .text.aarch64_slt_done
                0x00000000        0x4 /xspace/OrangePi/MTK/OrangePi_4G-iot/output//obj/platform.o
 .bss.mem_size.6177
                0x00000000        0x8 /xspace/OrangePi/MTK/OrangePi_4G-iot/output//obj/platform.o
 .bss.g_boot_dev
                0x00000000       0x20 /xspace/OrangePi/MTK/OrangePi_4G-iot/output//obj/platform.o
 .note.GNU-stack
                0x00000000        0x0 /xspace/OrangePi/MTK/OrangePi_4G-iot/output//obj/platform.o
 .text          0x00000000        0x0 /xspace/OrangePi/MTK/OrangePi_4G-iot/output//obj/pll2.o
 .data          0x00000000        0x0 /xspace/OrangePi/MTK/OrangePi_4G-iot/output//obj/pll2.o
 .bss           0x00000000        0x0 /xspace/OrangePi/MTK/OrangePi_4G-iot/output//obj/pll2.o
 .text.mt_get_bus_freq
                0x00000000       0x80 /xspace/OrangePi/MTK/OrangePi_4G-iot/output//obj/pll2.o
 .text.clkmux_26M
                0x00000000       0x1c /xspace/OrangePi/MTK/OrangePi_4G-iot/output//obj/pll2.o
 .data.rel.local.ckgen_array
                0x00000000       0x98 /xspace/OrangePi/MTK/OrangePi_4G-iot/output//obj/pll2.o
 .note.GNU-stack
                0x00000000        0x0 /xspace/OrangePi/MTK/OrangePi_4G-iot/output//obj/pll2.o
 .text          0x00000000        0x0 /xspace/OrangePi/MTK/OrangePi_4G-iot/output//obj/pmic.o
 .data          0x00000000        0x0 /xspace/OrangePi/MTK/OrangePi_4G-iot/output//obj/pmic.o
 .bss           0x00000000        0x0 /xspace/OrangePi/MTK/OrangePi_4G-iot/output//obj/pmic.o
 .text.pmic_detect_homekey
                0x00000000       0x40 /xspace/OrangePi/MTK/OrangePi_4G-iot/output//obj/pmic.o
 .text.mt6325_upmu_set_baton_tdet_en
                0x00000000        0xe /xspace/OrangePi/MTK/OrangePi_4G-iot/output//obj/pmic.o
 .text.mt6325_upmu_set_rg_baton_en
                0x00000000        0xe /xspace/OrangePi/MTK/OrangePi_4G-iot/output//obj/pmic.o
 .text.mt6325_upmu_get_rgs_baton_undet
                0x00000000       0x1c /xspace/OrangePi/MTK/OrangePi_4G-iot/output//obj/pmic.o
 .note.GNU-stack
                0x00000000        0x0 /xspace/OrangePi/MTK/OrangePi_4G-iot/output//obj/pmic.o
 .text          0x00000000        0x0 /xspace/OrangePi/MTK/OrangePi_4G-iot/output//obj/pmic_wrap_init.o
 .data          0x00000000        0x0 /xspace/OrangePi/MTK/OrangePi_4G-iot/output//obj/pmic_wrap_init.o
 .bss           0x00000000        0x0 /xspace/OrangePi/MTK/OrangePi_4G-iot/output//obj/pmic_wrap_init.o
 .text.pwrap_dump_all_register
                0x00000000       0x28 /xspace/OrangePi/MTK/OrangePi_4G-iot/output//obj/pmic_wrap_init.o
 .rodata.str1.1
                0x00000000        0xb /xspace/OrangePi/MTK/OrangePi_4G-iot/output//obj/pmic_wrap_init.o
 .note.GNU-stack
                0x00000000        0x0 /xspace/OrangePi/MTK/OrangePi_4G-iot/output//obj/pmic_wrap_init.o
 .text          0x00000000        0x0 /xspace/OrangePi/MTK/OrangePi_4G-iot/output//obj/print.o
 .data          0x00000000        0x0 /xspace/OrangePi/MTK/OrangePi_4G-iot/output//obj/print.o
 .bss           0x00000000        0x0 /xspace/OrangePi/MTK/OrangePi_4G-iot/output//obj/print.o
 .note.GNU-stack
                0x00000000        0x0 /xspace/OrangePi/MTK/OrangePi_4G-iot/output//obj/print.o
 .text          0x00000000        0x0 /xspace/OrangePi/MTK/OrangePi_4G-iot/output//obj/ram_console.o
 .data          0x00000000        0x0 /xspace/OrangePi/MTK/OrangePi_4G-iot/output//obj/ram_console.o
 .bss           0x00000000        0x0 /xspace/OrangePi/MTK/OrangePi_4G-iot/output//obj/ram_console.o
 .text.ram_console_pl_save
                0x00000000       0x30 /xspace/OrangePi/MTK/OrangePi_4G-iot/output//obj/ram_console.o
 .note.GNU-stack
                0x00000000        0x0 /xspace/OrangePi/MTK/OrangePi_4G-iot/output//obj/ram_console.o
 .text          0x00000000        0x0 /xspace/OrangePi/MTK/OrangePi_4G-iot/output//obj/rtc.o
 .data          0x00000000        0x0 /xspace/OrangePi/MTK/OrangePi_4G-iot/output//obj/rtc.o
 .bss           0x00000000        0x0 /xspace/OrangePi/MTK/OrangePi_4G-iot/output//obj/rtc.o
 .text.rtc_rdwr_uart_bits
                0x00000000       0x48 /xspace/OrangePi/MTK/OrangePi_4G-iot/output//obj/rtc.o
 .note.GNU-stack
                0x00000000        0x0 /xspace/OrangePi/MTK/OrangePi_4G-iot/output//obj/rtc.o
 .text          0x00000000        0x0 /xspace/OrangePi/MTK/OrangePi_4G-iot/output//obj/sec.o
 .data          0x00000000        0x0 /xspace/OrangePi/MTK/OrangePi_4G-iot/output//obj/sec.o
 .bss           0x00000000        0x0 /xspace/OrangePi/MTK/OrangePi_4G-iot/output//obj/sec.o
 .text.sec_cfg_save
                0x00000000       0x58 /xspace/OrangePi/MTK/OrangePi_4G-iot/output//obj/sec.o
 .note.GNU-stack
                0x00000000        0x0 /xspace/OrangePi/MTK/OrangePi_4G-iot/output//obj/sec.o
 .text          0x00000000        0x0 /xspace/OrangePi/MTK/OrangePi_4G-iot/output//obj/sec_auth.o
 .data          0x00000000        0x0 /xspace/OrangePi/MTK/OrangePi_4G-iot/output//obj/sec_auth.o
 .bss           0x00000000        0x0 /xspace/OrangePi/MTK/OrangePi_4G-iot/output//obj/sec_auth.o
 .note.GNU-stack
                0x00000000        0x0 /xspace/OrangePi/MTK/OrangePi_4G-iot/output//obj/sec_auth.o
 .text          0x00000000        0x0 /xspace/OrangePi/MTK/OrangePi_4G-iot/output//obj/sec_boot.o
 .data          0x00000000        0x0 /xspace/OrangePi/MTK/OrangePi_4G-iot/output//obj/sec_boot.o
 .bss           0x00000000        0x0 /xspace/OrangePi/MTK/OrangePi_4G-iot/output//obj/sec_boot.o
 .note.GNU-stack
                0x00000000        0x0 /xspace/OrangePi/MTK/OrangePi_4G-iot/output//obj/sec_boot.o
 .text          0x00000000        0x0 /xspace/OrangePi/MTK/OrangePi_4G-iot/output//obj/sec_ctrl.o
 .data          0x00000000        0x0 /xspace/OrangePi/MTK/OrangePi_4G-iot/output//obj/sec_ctrl.o
 .bss           0x00000000        0x0 /xspace/OrangePi/MTK/OrangePi_4G-iot/output//obj/sec_ctrl.o
 .note.GNU-stack
                0x00000000        0x0 /xspace/OrangePi/MTK/OrangePi_4G-iot/output//obj/sec_ctrl.o
 .text          0x00000000        0x0 /xspace/OrangePi/MTK/OrangePi_4G-iot/output//obj/sec_efuse.o
 .data          0x00000000        0x0 /xspace/OrangePi/MTK/OrangePi_4G-iot/output//obj/sec_efuse.o
 .bss           0x00000000        0x0 /xspace/OrangePi/MTK/OrangePi_4G-iot/output//obj/sec_efuse.o
 .text.efuse_part_get_base
                0x00000000       0x38 /xspace/OrangePi/MTK/OrangePi_4G-iot/output//obj/sec_efuse.o
 .text.efuse_storage_init
                0x00000000        0x8 /xspace/OrangePi/MTK/OrangePi_4G-iot/output//obj/sec_efuse.o
 .text.efuse_storage_read
                0x00000000       0x16 /xspace/OrangePi/MTK/OrangePi_4G-iot/output//obj/sec_efuse.o
 .text.efuse_storage_write
                0x00000000       0x16 /xspace/OrangePi/MTK/OrangePi_4G-iot/output//obj/sec_efuse.o
 .text.efuse_wdt_init
                0x00000000        0x4 /xspace/OrangePi/MTK/OrangePi_4G-iot/output//obj/sec_efuse.o
 .text.efuse_wdt_disable
                0x00000000        0x4 /xspace/OrangePi/MTK/OrangePi_4G-iot/output//obj/sec_efuse.o
 .text.efuse_wdt_sw_reset
                0x00000000        0x4 /xspace/OrangePi/MTK/OrangePi_4G-iot/output//obj/sec_efuse.o
 .text.efuse_dram_reserved
                0x00000000        0x4 /xspace/OrangePi/MTK/OrangePi_4G-iot/output//obj/sec_efuse.o
 .text.efuse_pll_set
                0x00000000        0x4 /xspace/OrangePi/MTK/OrangePi_4G-iot/output//obj/sec_efuse.o
 .text.efuse_check_lowbat
                0x00000000       0x16 /xspace/OrangePi/MTK/OrangePi_4G-iot/output//obj/sec_efuse.o
 .text.efuse_fsource_set
                0x00000000       0x3e /xspace/OrangePi/MTK/OrangePi_4G-iot/output//obj/sec_efuse.o
 .text.efuse_fsource_close
                0x00000000       0x1c /xspace/OrangePi/MTK/OrangePi_4G-iot/output//obj/sec_efuse.o
 .text.efuse_vcore_high
                0x00000000       0x2c /xspace/OrangePi/MTK/OrangePi_4G-iot/output//obj/sec_efuse.o
 .text.efuse_vcore_low
                0x00000000       0x2c /xspace/OrangePi/MTK/OrangePi_4G-iot/output//obj/sec_efuse.o
 .text.efuse_module_reinit
                0x00000000        0x4 /xspace/OrangePi/MTK/OrangePi_4G-iot/output//obj/sec_efuse.o
 .rodata.str1.1
                0x00000000       0x3a /xspace/OrangePi/MTK/OrangePi_4G-iot/output//obj/sec_efuse.o
 .note.GNU-stack
                0x00000000        0x0 /xspace/OrangePi/MTK/OrangePi_4G-iot/output//obj/sec_efuse.o
 .text          0x00000000        0x0 /xspace/OrangePi/MTK/OrangePi_4G-iot/output//obj/sec_flashtool_cfg.o
 .data          0x00000000        0x0 /xspace/OrangePi/MTK/OrangePi_4G-iot/output//obj/sec_flashtool_cfg.o
 .bss           0x00000000        0x0 /xspace/OrangePi/MTK/OrangePi_4G-iot/output//obj/sec_flashtool_cfg.o
 .note.GNU-stack
                0x00000000        0x0 /xspace/OrangePi/MTK/OrangePi_4G-iot/output//obj/sec_flashtool_cfg.o
 .text          0x00000000        0x0 /xspace/OrangePi/MTK/OrangePi_4G-iot/output//obj/sec_key.o
 .data          0x00000000        0x0 /xspace/OrangePi/MTK/OrangePi_4G-iot/output//obj/sec_key.o
 .bss           0x00000000        0x0 /xspace/OrangePi/MTK/OrangePi_4G-iot/output//obj/sec_key.o
 .note.GNU-stack
                0x00000000        0x0 /xspace/OrangePi/MTK/OrangePi_4G-iot/output//obj/sec_key.o
 .text          0x00000000        0x0 /xspace/OrangePi/MTK/OrangePi_4G-iot/output//obj/sec_region.o
 .data          0x00000000        0x0 /xspace/OrangePi/MTK/OrangePi_4G-iot/output//obj/sec_region.o
 .bss           0x00000000        0x0 /xspace/OrangePi/MTK/OrangePi_4G-iot/output//obj/sec_region.o
 .text.da_region_check
                0x00000000       0x1a /xspace/OrangePi/MTK/OrangePi_4G-iot/output//obj/sec_region.o
 .note.GNU-stack
                0x00000000        0x0 /xspace/OrangePi/MTK/OrangePi_4G-iot/output//obj/sec_region.o
 .text          0x00000000        0x0 /xspace/OrangePi/MTK/OrangePi_4G-iot/output//obj/sec_rom_info.o
 .data          0x00000000        0x0 /xspace/OrangePi/MTK/OrangePi_4G-iot/output//obj/sec_rom_info.o
 .bss           0x00000000        0x0 /xspace/OrangePi/MTK/OrangePi_4G-iot/output//obj/sec_rom_info.o
 .note.GNU-stack
                0x00000000        0x0 /xspace/OrangePi/MTK/OrangePi_4G-iot/output//obj/sec_rom_info.o
 .text          0x00000000        0x0 /xspace/OrangePi/MTK/OrangePi_4G-iot/output//obj/sec_secroimg.o
 .data          0x00000000        0x0 /xspace/OrangePi/MTK/OrangePi_4G-iot/output//obj/sec_secroimg.o
 .bss           0x00000000        0x0 /xspace/OrangePi/MTK/OrangePi_4G-iot/output//obj/sec_secroimg.o
 .note.GNU-stack
                0x00000000        0x0 /xspace/OrangePi/MTK/OrangePi_4G-iot/output//obj/sec_secroimg.o
 .text          0x00000000        0x0 /xspace/OrangePi/MTK/OrangePi_4G-iot/output//obj/sec_util.o
 .data          0x00000000        0x0 /xspace/OrangePi/MTK/OrangePi_4G-iot/output//obj/sec_util.o
 .bss           0x00000000        0x0 /xspace/OrangePi/MTK/OrangePi_4G-iot/output//obj/sec_util.o
 .text.sec_util_get_chunk_buf
                0x00000000       0x1c /xspace/OrangePi/MTK/OrangePi_4G-iot/output//obj/sec_util.o
 .text.sec_set_usb_handshake_status
                0x00000000        0xc /xspace/OrangePi/MTK/OrangePi_4G-iot/output//obj/sec_util.o
 .text.sec_util_force_entering_fastboot_mode
                0x00000000       0x40 /xspace/OrangePi/MTK/OrangePi_4G-iot/output//obj/sec_util.o
 .note.GNU-stack
                0x00000000        0x0 /xspace/OrangePi/MTK/OrangePi_4G-iot/output//obj/sec_util.o
 .text          0x00000000        0x0 /xspace/OrangePi/MTK/OrangePi_4G-iot/output//obj/spm_mtcmos.o
 .data          0x00000000        0x0 /xspace/OrangePi/MTK/OrangePi_4G-iot/output//obj/spm_mtcmos.o
 .bss           0x00000000        0x0 /xspace/OrangePi/MTK/OrangePi_4G-iot/output//obj/spm_mtcmos.o
 .text.spm_mtcmos_ctrl_cpusys0
                0x00000000      0x10c /xspace/OrangePi/MTK/OrangePi_4G-iot/output//obj/spm_mtcmos.o
 .text.spm_mtcmos_ctrl_cpusys1_init_1st_bring_up
                0x00000000       0x4c /xspace/OrangePi/MTK/OrangePi_4G-iot/output//obj/spm_mtcmos.o
 .text.spm_cpusys0_can_power_down
                0x00000000       0x2c /xspace/OrangePi/MTK/OrangePi_4G-iot/output//obj/spm_mtcmos.o
 .text.spm_cpusys1_can_power_down
                0x00000000       0x2c /xspace/OrangePi/MTK/OrangePi_4G-iot/output//obj/spm_mtcmos.o
 .text.spm_mtcmos_ctrl_vdec
                0x00000000       0xcc /xspace/OrangePi/MTK/OrangePi_4G-iot/output//obj/spm_mtcmos.o
 .text.spm_mtcmos_ctrl_venc
                0x00000000       0xd8 /xspace/OrangePi/MTK/OrangePi_4G-iot/output//obj/spm_mtcmos.o
 .text.spm_mtcmos_ctrl_isp
                0x00000000       0xd8 /xspace/OrangePi/MTK/OrangePi_4G-iot/output//obj/spm_mtcmos.o
 .text.spm_mtcmos_ctrl_mfg
                0x00000000      0x104 /xspace/OrangePi/MTK/OrangePi_4G-iot/output//obj/spm_mtcmos.o
 .text.spm_mtcmos_ctrl_mdsys1
                0x00000000       0xfc /xspace/OrangePi/MTK/OrangePi_4G-iot/output//obj/spm_mtcmos.o
 .text.spm_mtcmos_ctrl_mdsys2
                0x00000000       0xfc /xspace/OrangePi/MTK/OrangePi_4G-iot/output//obj/spm_mtcmos.o
 .text.spm_mtcmos_ctrl_connsys
                0x00000000       0xfc /xspace/OrangePi/MTK/OrangePi_4G-iot/output//obj/spm_mtcmos.o
 .text.spm_topaxi_prot
                0x00000000       0x40 /xspace/OrangePi/MTK/OrangePi_4G-iot/output//obj/spm_mtcmos.o
 .note.GNU-stack
                0x00000000        0x0 /xspace/OrangePi/MTK/OrangePi_4G-iot/output//obj/spm_mtcmos.o
 .text          0x00000000        0x0 /xspace/OrangePi/MTK/OrangePi_4G-iot/output//obj/stdlib.o
 .data          0x00000000        0x0 /xspace/OrangePi/MTK/OrangePi_4G-iot/output//obj/stdlib.o
 .bss           0x00000000        0x0 /xspace/OrangePi/MTK/OrangePi_4G-iot/output//obj/stdlib.o
 .text.isdigit  0x00000000        0xe /xspace/OrangePi/MTK/OrangePi_4G-iot/output//obj/stdlib.o
 .text.isxdigit
                0x00000000       0x20 /xspace/OrangePi/MTK/OrangePi_4G-iot/output//obj/stdlib.o
 .text.hexval   0x00000000       0x2c /xspace/OrangePi/MTK/OrangePi_4G-iot/output//obj/stdlib.o
 .text.atoll    0x00000000       0x90 /xspace/OrangePi/MTK/OrangePi_4G-iot/output//obj/stdlib.o
 .text.longjmperror
                0x00000000       0x18 /xspace/OrangePi/MTK/OrangePi_4G-iot/output//obj/stdlib.o
 .rodata.str1.1
                0x00000000        0xb /xspace/OrangePi/MTK/OrangePi_4G-iot/output//obj/stdlib.o
 .note.GNU-stack
                0x00000000        0x0 /xspace/OrangePi/MTK/OrangePi_4G-iot/output//obj/stdlib.o
 .text          0x00000000        0x0 /xspace/OrangePi/MTK/OrangePi_4G-iot/output//obj/string.o
 .data          0x00000000        0x0 /xspace/OrangePi/MTK/OrangePi_4G-iot/output//obj/string.o
 .bss           0x00000000        0x0 /xspace/OrangePi/MTK/OrangePi_4G-iot/output//obj/string.o
 .note.GNU-stack
                0x00000000        0x0 /xspace/OrangePi/MTK/OrangePi_4G-iot/output//obj/string.o
 .text          0x00000000        0x0 /xspace/OrangePi/MTK/OrangePi_4G-iot/output//obj/sync_write.o
 .data          0x00000000        0x0 /xspace/OrangePi/MTK/OrangePi_4G-iot/output//obj/sync_write.o
 .bss           0x00000000        0x0 /xspace/OrangePi/MTK/OrangePi_4G-iot/output//obj/sync_write.o
 .text.mt_reg_sync_writew
                0x00000000        0x8 /xspace/OrangePi/MTK/OrangePi_4G-iot/output//obj/sync_write.o
 .note.GNU-stack
                0x00000000        0x0 /xspace/OrangePi/MTK/OrangePi_4G-iot/output//obj/sync_write.o
 .text          0x00000000        0x0 /xspace/OrangePi/MTK/OrangePi_4G-iot/output//obj/timer.o
 .data          0x00000000        0x0 /xspace/OrangePi/MTK/OrangePi_4G-iot/output//obj/timer.o
 .bss           0x00000000        0x0 /xspace/OrangePi/MTK/OrangePi_4G-iot/output//obj/timer.o
 .note.GNU-stack
                0x00000000        0x0 /xspace/OrangePi/MTK/OrangePi_4G-iot/output//obj/timer.o
 .text          0x00000000        0x0 /xspace/OrangePi/MTK/OrangePi_4G-iot/output//obj/tz_emi_mpu.o
 .data          0x00000000        0x0 /xspace/OrangePi/MTK/OrangePi_4G-iot/output//obj/tz_emi_mpu.o
 .bss           0x00000000        0x0 /xspace/OrangePi/MTK/OrangePi_4G-iot/output//obj/tz_emi_mpu.o
 .note.GNU-stack
                0x00000000        0x0 /xspace/OrangePi/MTK/OrangePi_4G-iot/output//obj/tz_emi_mpu.o
 .text          0x00000000        0x0 /xspace/OrangePi/MTK/OrangePi_4G-iot/output//obj/tz_init.o
 .data          0x00000000        0x0 /xspace/OrangePi/MTK/OrangePi_4G-iot/output//obj/tz_init.o
 .bss           0x00000000        0x0 /xspace/OrangePi/MTK/OrangePi_4G-iot/output//obj/tz_init.o
 .text.tee_set_entry
                0x00000000       0x20 /xspace/OrangePi/MTK/OrangePi_4G-iot/output//obj/tz_init.o
 .text.tee_set_hwuid
                0x00000000       0x34 /xspace/OrangePi/MTK/OrangePi_4G-iot/output//obj/tz_init.o
 .text.tee_get_hwuid
                0x00000000       0x28 /xspace/OrangePi/MTK/OrangePi_4G-iot/output//obj/tz_init.o
 .bss.g_hwuid_initialized
                0x00000000        0x1 /xspace/OrangePi/MTK/OrangePi_4G-iot/output//obj/tz_init.o
 .bss.g_hwuid   0x00000000       0x10 /xspace/OrangePi/MTK/OrangePi_4G-iot/output//obj/tz_init.o
 .note.GNU-stack
                0x00000000        0x0 /xspace/OrangePi/MTK/OrangePi_4G-iot/output//obj/tz_init.o
 .text          0x00000000        0x0 /xspace/OrangePi/MTK/OrangePi_4G-iot/output//obj/tz_sec_cfg.o
 .data          0x00000000        0x0 /xspace/OrangePi/MTK/OrangePi_4G-iot/output//obj/tz_sec_cfg.o
 .bss           0x00000000        0x0 /xspace/OrangePi/MTK/OrangePi_4G-iot/output//obj/tz_sec_cfg.o
 .note.GNU-stack
                0x00000000        0x0 /xspace/OrangePi/MTK/OrangePi_4G-iot/output//obj/tz_sec_cfg.o
 .text          0x00000000        0x0 /xspace/OrangePi/MTK/OrangePi_4G-iot/output//obj/uart.o
 .data          0x00000000        0x0 /xspace/OrangePi/MTK/OrangePi_4G-iot/output//obj/uart.o
 .bss           0x00000000        0x0 /xspace/OrangePi/MTK/OrangePi_4G-iot/output//obj/uart.o
 .text.serial_nonblock_getc
                0x00000000       0x18 /xspace/OrangePi/MTK/OrangePi_4G-iot/output//obj/uart.o
 .note.GNU-stack
                0x00000000        0x0 /xspace/OrangePi/MTK/OrangePi_4G-iot/output//obj/uart.o
 .text          0x00000000        0x0 /xspace/OrangePi/MTK/OrangePi_4G-iot/output//obj/usbd.o
 .data          0x00000000        0x0 /xspace/OrangePi/MTK/OrangePi_4G-iot/output//obj/usbd.o
 .bss           0x00000000        0x0 /xspace/OrangePi/MTK/OrangePi_4G-iot/output//obj/usbd.o
 .text.udc_disable
                0x00000000        0x2 /xspace/OrangePi/MTK/OrangePi_4G-iot/output//obj/usbd.o
 .text.get_linestate
                0x00000000       0x14 /xspace/OrangePi/MTK/OrangePi_4G-iot/output//obj/usbd.o
 .text.is_uart_cable_inserted
                0x00000000       0xc0 /xspace/OrangePi/MTK/OrangePi_4G-iot/output//obj/usbd.o
 .note.GNU-stack
                0x00000000        0x0 /xspace/OrangePi/MTK/OrangePi_4G-iot/output//obj/usbd.o
 .text          0x00000000        0x0 /xspace/OrangePi/MTK/OrangePi_4G-iot/output//obj/usbphy.o
 .data          0x00000000        0x0 /xspace/OrangePi/MTK/OrangePi_4G-iot/output//obj/usbphy.o
 .bss           0x00000000        0x0 /xspace/OrangePi/MTK/OrangePi_4G-iot/output//obj/usbphy.o
 .text.mt_usb_calibraion
                0x00000000        0x2 /xspace/OrangePi/MTK/OrangePi_4G-iot/output//obj/usbphy.o
 .text.mt_usb_phy_calibraion
                0x00000000        0x2 /xspace/OrangePi/MTK/OrangePi_4G-iot/output//obj/usbphy.o
 .text.mt_usb11_phy_savecurrent
                0x00000000        0x2 /xspace/OrangePi/MTK/OrangePi_4G-iot/output//obj/usbphy.o
 .text.Charger_Detect_Init
                0x00000000       0x10 /xspace/OrangePi/MTK/OrangePi_4G-iot/output//obj/usbphy.o
 .text.Charger_Detect_Release
                0x00000000       0x10 /xspace/OrangePi/MTK/OrangePi_4G-iot/output//obj/usbphy.o
 .note.GNU-stack
                0x00000000        0x0 /xspace/OrangePi/MTK/OrangePi_4G-iot/output//obj/usbphy.o
 .text          0x00000000        0x0 /xspace/OrangePi/MTK/OrangePi_4G-iot/output//obj/usbtty.o
 .data          0x00000000        0x0 /xspace/OrangePi/MTK/OrangePi_4G-iot/output//obj/usbtty.o
 .bss           0x00000000        0x0 /xspace/OrangePi/MTK/OrangePi_4G-iot/output//obj/usbtty.o
 .text.mt_usbtty_tstc
                0x00000000       0x18 /xspace/OrangePi/MTK/OrangePi_4G-iot/output//obj/usbtty.o
 .text.mt_usbtty_getc
                0x00000000       0x28 /xspace/OrangePi/MTK/OrangePi_4G-iot/output//obj/usbtty.o
 .text.mt_usbtty_putc
                0x00000000       0x2c /xspace/OrangePi/MTK/OrangePi_4G-iot/output//obj/usbtty.o
 .bss.serialstate
                0x00000000        0x2 /xspace/OrangePi/MTK/OrangePi_4G-iot/output//obj/usbtty.o
 .note.GNU-stack
                0x00000000        0x0 /xspace/OrangePi/MTK/OrangePi_4G-iot/output//obj/usbtty.o
 .text          0x00000000        0x0 /xspace/OrangePi/MTK/OrangePi_4G-iot/output//obj/wdt.o
 .data          0x00000000        0x0 /xspace/OrangePi/MTK/OrangePi_4G-iot/output//obj/wdt.o
 .bss           0x00000000        0x0 /xspace/OrangePi/MTK/OrangePi_4G-iot/output//obj/wdt.o
 .text.mtk_wdt_disable
                0x00000000       0x14 /xspace/OrangePi/MTK/OrangePi_4G-iot/output//obj/wdt.o
 .text.mtk_wdt_enable
                0x00000000       0x14 /xspace/OrangePi/MTK/OrangePi_4G-iot/output//obj/wdt.o
 .text.mtk_wdt_sw_reset
                0x00000000       0x24 /xspace/OrangePi/MTK/OrangePi_4G-iot/output//obj/wdt.o
 .text.mtk_is_rgu_trigger_reset
                0x00000000       0x14 /xspace/OrangePi/MTK/OrangePi_4G-iot/output//obj/wdt.o
 .text.rgu_swsys_reset
                0x00000000       0x3c /xspace/OrangePi/MTK/OrangePi_4G-iot/output//obj/wdt.o
 .note.GNU-stack
                0x00000000        0x0 /xspace/OrangePi/MTK/OrangePi_4G-iot/output//obj/wdt.o
 .text          0x00000000        0x0 /xspace/OrangePi/MTK/OrangePi_4G-iot/bootloader/preloader/platform/mt6735/src/SecLib.a(seclib_boot.o)
 .data          0x00000000        0x0 /xspace/OrangePi/MTK/OrangePi_4G-iot/bootloader/preloader/platform/mt6735/src/SecLib.a(seclib_boot.o)
 .bss           0x00000000        0x0 /xspace/OrangePi/MTK/OrangePi_4G-iot/bootloader/preloader/platform/mt6735/src/SecLib.a(seclib_boot.o)
 .text.seclib_image_info_update
                0x00000000        0x4 /xspace/OrangePi/MTK/OrangePi_4G-iot/bootloader/preloader/platform/mt6735/src/SecLib.a(seclib_boot.o)
 .text.seclib_image_info_add
                0x00000000        0x4 /xspace/OrangePi/MTK/OrangePi_4G-iot/bootloader/preloader/platform/mt6735/src/SecLib.a(seclib_boot.o)
 .note.GNU-stack
                0x00000000        0x0 /xspace/OrangePi/MTK/OrangePi_4G-iot/bootloader/preloader/platform/mt6735/src/SecLib.a(seclib_boot.o)
 .text          0x00000000        0x0 /xspace/OrangePi/MTK/OrangePi_4G-iot/bootloader/preloader/platform/mt6735/src/SecLib.a(seclib_dl.o)
 .data          0x00000000        0x0 /xspace/OrangePi/MTK/OrangePi_4G-iot/bootloader/preloader/platform/mt6735/src/SecLib.a(seclib_dl.o)
 .bss           0x00000000        0x0 /xspace/OrangePi/MTK/OrangePi_4G-iot/bootloader/preloader/platform/mt6735/src/SecLib.a(seclib_dl.o)
 .note.GNU-stack
                0x00000000        0x0 /xspace/OrangePi/MTK/OrangePi_4G-iot/bootloader/preloader/platform/mt6735/src/SecLib.a(seclib_dl.o)
 .text          0x00000000        0x0 /xspace/OrangePi/MTK/OrangePi_4G-iot/bootloader/preloader/platform/mt6735/src/SecLib.a(seclib_key.o)
 .data          0x00000000        0x0 /xspace/OrangePi/MTK/OrangePi_4G-iot/bootloader/preloader/platform/mt6735/src/SecLib.a(seclib_key.o)
 .bss           0x00000000        0x0 /xspace/OrangePi/MTK/OrangePi_4G-iot/bootloader/preloader/platform/mt6735/src/SecLib.a(seclib_key.o)
 .note.GNU-stack
                0x00000000        0x0 /xspace/OrangePi/MTK/OrangePi_4G-iot/bootloader/preloader/platform/mt6735/src/SecLib.a(seclib_key.o)
 .text          0x00000000        0x0 /xspace/OrangePi/MTK/OrangePi_4G-iot/bootloader/preloader/platform/mt6735/src/SecLib.a(seclib.o)
 .data          0x00000000        0x0 /xspace/OrangePi/MTK/OrangePi_4G-iot/bootloader/preloader/platform/mt6735/src/SecLib.a(seclib.o)
 .bss           0x00000000        0x0 /xspace/OrangePi/MTK/OrangePi_4G-iot/bootloader/preloader/platform/mt6735/src/SecLib.a(seclib.o)
 .text.seclib_query_factory_lock
                0x00000000       0x40 /xspace/OrangePi/MTK/OrangePi_4G-iot/bootloader/preloader/platform/mt6735/src/SecLib.a(seclib.o)
 .text.seclib_get_msg_auth_key
                0x00000000       0x52 /xspace/OrangePi/MTK/OrangePi_4G-iot/bootloader/preloader/platform/mt6735/src/SecLib.a(seclib.o)
 .text.seclib_scramble_key
                0x00000000       0x30 /xspace/OrangePi/MTK/OrangePi_4G-iot/bootloader/preloader/platform/mt6735/src/SecLib.a(seclib.o)
 .text.seclib_init
                0x00000000       0x50 /xspace/OrangePi/MTK/OrangePi_4G-iot/bootloader/preloader/platform/mt6735/src/SecLib.a(seclib.o)
 .note.GNU-stack
                0x00000000        0x0 /xspace/OrangePi/MTK/OrangePi_4G-iot/bootloader/preloader/platform/mt6735/src/SecLib.a(seclib.o)
 .text          0x00000000        0x0 /xspace/OrangePi/MTK/OrangePi_4G-iot/bootloader/preloader/platform/mt6735/src/SecLib.a(seclib_secroimg.o)
 .data          0x00000000        0x0 /xspace/OrangePi/MTK/OrangePi_4G-iot/bootloader/preloader/platform/mt6735/src/SecLib.a(seclib_secroimg.o)
 .bss           0x00000000        0x0 /xspace/OrangePi/MTK/OrangePi_4G-iot/bootloader/preloader/platform/mt6735/src/SecLib.a(seclib_secroimg.o)
 .note.GNU-stack
                0x00000000        0x0 /xspace/OrangePi/MTK/OrangePi_4G-iot/bootloader/preloader/platform/mt6735/src/SecLib.a(seclib_secroimg.o)
 .text          0x00000000        0x0 /xspace/OrangePi/MTK/OrangePi_4G-iot/bootloader/preloader/platform/mt6735/src/SecLib.a(seclib_sej_export.o)
 .data          0x00000000        0x0 /xspace/OrangePi/MTK/OrangePi_4G-iot/bootloader/preloader/platform/mt6735/src/SecLib.a(seclib_sej_export.o)
 .bss           0x00000000        0x0 /xspace/OrangePi/MTK/OrangePi_4G-iot/bootloader/preloader/platform/mt6735/src/SecLib.a(seclib_sej_export.o)
 .text.sp_sej_enc
                0x00000000       0x68 /xspace/OrangePi/MTK/OrangePi_4G-iot/bootloader/preloader/platform/mt6735/src/SecLib.a(seclib_sej_export.o)
 .text.sp_sej_deinit
                0x00000000        0x4 /xspace/OrangePi/MTK/OrangePi_4G-iot/bootloader/preloader/platform/mt6735/src/SecLib.a(seclib_sej_export.o)
 .note.GNU-stack
                0x00000000        0x0 /xspace/OrangePi/MTK/OrangePi_4G-iot/bootloader/preloader/platform/mt6735/src/SecLib.a(seclib_sej_export.o)
 .text          0x00000000        0x0 /xspace/OrangePi/MTK/OrangePi_4G-iot/bootloader/preloader/platform/mt6735/src/SecLib.a(seclib_util.o)
 .data          0x00000000        0x0 /xspace/OrangePi/MTK/OrangePi_4G-iot/bootloader/preloader/platform/mt6735/src/SecLib.a(seclib_util.o)
 .bss           0x00000000        0x0 /xspace/OrangePi/MTK/OrangePi_4G-iot/bootloader/preloader/platform/mt6735/src/SecLib.a(seclib_util.o)
 .text.seclib_image_hash_dump
                0x00000000       0x4c /xspace/OrangePi/MTK/OrangePi_4G-iot/bootloader/preloader/platform/mt6735/src/SecLib.a(seclib_util.o)
 .rodata.str1.1
                0x00000000       0x11 /xspace/OrangePi/MTK/OrangePi_4G-iot/bootloader/preloader/platform/mt6735/src/SecLib.a(seclib_util.o)
 .note.GNU-stack
                0x00000000        0x0 /xspace/OrangePi/MTK/OrangePi_4G-iot/bootloader/preloader/platform/mt6735/src/SecLib.a(seclib_util.o)
 .text          0x00000000        0x0 /xspace/OrangePi/MTK/OrangePi_4G-iot/bootloader/preloader/platform/mt6735/src/SecLib.a(sha256.o)
 .data          0x00000000        0x0 /xspace/OrangePi/MTK/OrangePi_4G-iot/bootloader/preloader/platform/mt6735/src/SecLib.a(sha256.o)
 .bss           0x00000000        0x0 /xspace/OrangePi/MTK/OrangePi_4G-iot/bootloader/preloader/platform/mt6735/src/SecLib.a(sha256.o)
 .note.GNU-stack
                0x00000000        0x0 /xspace/OrangePi/MTK/OrangePi_4G-iot/bootloader/preloader/platform/mt6735/src/SecLib.a(sha256.o)
 .text          0x00000000        0x0 /xspace/OrangePi/MTK/OrangePi_4G-iot/bootloader/preloader/platform/mt6735/src/SecLib.a(rsa2048.o)
 .data          0x00000000        0x0 /xspace/OrangePi/MTK/OrangePi_4G-iot/bootloader/preloader/platform/mt6735/src/SecLib.a(rsa2048.o)
 .bss           0x00000000        0x0 /xspace/OrangePi/MTK/OrangePi_4G-iot/bootloader/preloader/platform/mt6735/src/SecLib.a(rsa2048.o)
 .note.GNU-stack
                0x00000000        0x0 /xspace/OrangePi/MTK/OrangePi_4G-iot/bootloader/preloader/platform/mt6735/src/SecLib.a(rsa2048.o)
 .text          0x00000000        0x0 /xspace/OrangePi/MTK/OrangePi_4G-iot/bootloader/preloader/platform/mt6735/src/SecLib.a(seccfg_crypto.o)
 .data          0x00000000        0x0 /xspace/OrangePi/MTK/OrangePi_4G-iot/bootloader/preloader/platform/mt6735/src/SecLib.a(seccfg_crypto.o)
 .bss           0x00000000        0x0 /xspace/OrangePi/MTK/OrangePi_4G-iot/bootloader/preloader/platform/mt6735/src/SecLib.a(seccfg_crypto.o)
 .note.GNU-stack
                0x00000000        0x0 /xspace/OrangePi/MTK/OrangePi_4G-iot/bootloader/preloader/platform/mt6735/src/SecLib.a(seccfg_crypto.o)
 .text          0x00000000        0x0 /xspace/OrangePi/MTK/OrangePi_4G-iot/bootloader/preloader/platform/mt6735/src/security/auth/DaVerifyLib.a(stdlib.o)
 .data          0x00000000        0x0 /xspace/OrangePi/MTK/OrangePi_4G-iot/bootloader/preloader/platform/mt6735/src/security/auth/DaVerifyLib.a(stdlib.o)
 .bss           0x00000000        0x0 /xspace/OrangePi/MTK/OrangePi_4G-iot/bootloader/preloader/platform/mt6735/src/security/auth/DaVerifyLib.a(stdlib.o)
 .note.GNU-stack
                0x00000000        0x0 /xspace/OrangePi/MTK/OrangePi_4G-iot/bootloader/preloader/platform/mt6735/src/security/auth/DaVerifyLib.a(stdlib.o)
 .text          0x00000000        0x0 /xspace/OrangePi/MTK/OrangePi_4G-iot/bootloader/preloader/platform/mt6735/src/SecPlat.a(efuse.o)
 .data          0x00000000        0x0 /xspace/OrangePi/MTK/OrangePi_4G-iot/bootloader/preloader/platform/mt6735/src/SecPlat.a(efuse.o)
 .bss           0x00000000        0x0 /xspace/OrangePi/MTK/OrangePi_4G-iot/bootloader/preloader/platform/mt6735/src/SecPlat.a(efuse.o)
 .text.set_thermal_option
                0x00000000        0xc /xspace/OrangePi/MTK/OrangePi_4G-iot/bootloader/preloader/platform/mt6735/src/SecPlat.a(efuse.o)
 .text.seclib_hw_jtag_disabled
                0x00000000       0x10 /xspace/OrangePi/MTK/OrangePi_4G-iot/bootloader/preloader/platform/mt6735/src/SecPlat.a(efuse.o)
 .text.seclib_sw_jtag_enabled
                0x00000000       0x10 /xspace/OrangePi/MTK/OrangePi_4G-iot/bootloader/preloader/platform/mt6735/src/SecPlat.a(efuse.o)
 .text.seclib_jtag_brom_lock_disabled
                0x00000000       0x10 /xspace/OrangePi/MTK/OrangePi_4G-iot/bootloader/preloader/platform/mt6735/src/SecPlat.a(efuse.o)
 .note.GNU-stack
                0x00000000        0x0 /xspace/OrangePi/MTK/OrangePi_4G-iot/bootloader/preloader/platform/mt6735/src/SecPlat.a(efuse.o)
 .text          0x00000000        0x0 /xspace/OrangePi/MTK/OrangePi_4G-iot/bootloader/preloader/platform/mt6735/src/SecPlat.a(gcpu.o)
 .data          0x00000000        0x0 /xspace/OrangePi/MTK/OrangePi_4G-iot/bootloader/preloader/platform/mt6735/src/SecPlat.a(gcpu.o)
 .bss           0x00000000        0x0 /xspace/OrangePi/MTK/OrangePi_4G-iot/bootloader/preloader/platform/mt6735/src/SecPlat.a(gcpu.o)
 .note.GNU-stack
                0x00000000        0x0 /xspace/OrangePi/MTK/OrangePi_4G-iot/bootloader/preloader/platform/mt6735/src/SecPlat.a(gcpu.o)
 .text          0x00000000        0x0 /xspace/OrangePi/MTK/OrangePi_4G-iot/bootloader/preloader/platform/mt6735/src/SecPlat.a(meta.o)
 .data          0x00000000        0x0 /xspace/OrangePi/MTK/OrangePi_4G-iot/bootloader/preloader/platform/mt6735/src/SecPlat.a(meta.o)
 .bss           0x00000000        0x0 /xspace/OrangePi/MTK/OrangePi_4G-iot/bootloader/preloader/platform/mt6735/src/SecPlat.a(meta.o)
 .note.GNU-stack
                0x00000000        0x0 /xspace/OrangePi/MTK/OrangePi_4G-iot/bootloader/preloader/platform/mt6735/src/SecPlat.a(meta.o)
 .text          0x00000000        0x0 /xspace/OrangePi/MTK/OrangePi_4G-iot/bootloader/preloader/platform/mt6735/src/SecPlat.a(sec_boot_tz_trustonic.o)
 .data          0x00000000        0x0 /xspace/OrangePi/MTK/OrangePi_4G-iot/bootloader/preloader/platform/mt6735/src/SecPlat.a(sec_boot_tz_trustonic.o)
 .bss           0x00000000        0x0 /xspace/OrangePi/MTK/OrangePi_4G-iot/bootloader/preloader/platform/mt6735/src/SecPlat.a(sec_boot_tz_trustonic.o)
 .note.GNU-stack
                0x00000000        0x0 /xspace/OrangePi/MTK/OrangePi_4G-iot/bootloader/preloader/platform/mt6735/src/SecPlat.a(sec_boot_tz_trustonic.o)
 .text          0x00000000        0x0 /xspace/OrangePi/MTK/OrangePi_4G-iot/bootloader/preloader/platform/mt6735/src/SecPlat.a(seclib_region.o)
 .data          0x00000000        0x0 /xspace/OrangePi/MTK/OrangePi_4G-iot/bootloader/preloader/platform/mt6735/src/SecPlat.a(seclib_region.o)
 .bss           0x00000000        0x0 /xspace/OrangePi/MTK/OrangePi_4G-iot/bootloader/preloader/platform/mt6735/src/SecPlat.a(seclib_region.o)
 .note.GNU-stack
                0x00000000        0x0 /xspace/OrangePi/MTK/OrangePi_4G-iot/bootloader/preloader/platform/mt6735/src/SecPlat.a(seclib_region.o)
 .text          0x00000000        0x0 /xspace/OrangePi/MTK/OrangePi_4G-iot/bootloader/preloader/platform/mt6735/src/SecPlat.a(sej_hk.o)
 .data          0x00000000        0x0 /xspace/OrangePi/MTK/OrangePi_4G-iot/bootloader/preloader/platform/mt6735/src/SecPlat.a(sej_hk.o)
 .bss           0x00000000        0x0 /xspace/OrangePi/MTK/OrangePi_4G-iot/bootloader/preloader/platform/mt6735/src/SecPlat.a(sej_hk.o)
 .rodata.g_AC_BOOTROM_SWOTP
                0x00000000       0x20 /xspace/OrangePi/MTK/OrangePi_4G-iot/bootloader/preloader/platform/mt6735/src/SecPlat.a(sej_hk.o)
 .note.GNU-stack
                0x00000000        0x0 /xspace/OrangePi/MTK/OrangePi_4G-iot/bootloader/preloader/platform/mt6735/src/SecPlat.a(sej_hk.o)
 .text          0x00000000        0x0 /xspace/OrangePi/MTK/OrangePi_4G-iot/bootloader/preloader/platform/mt6735/src/SecPlat.a(sej_sk.o)
 .data          0x00000000        0x0 /xspace/OrangePi/MTK/OrangePi_4G-iot/bootloader/preloader/platform/mt6735/src/SecPlat.a(sej_sk.o)
 .bss           0x00000000        0x0 /xspace/OrangePi/MTK/OrangePi_4G-iot/bootloader/preloader/platform/mt6735/src/SecPlat.a(sej_sk.o)
 .text.sej_set_custom_iv
                0x00000000       0x2c /xspace/OrangePi/MTK/OrangePi_4G-iot/bootloader/preloader/platform/mt6735/src/SecPlat.a(sej_sk.o)
 .text.sej_clear_custom_iv
                0x00000000       0x20 /xspace/OrangePi/MTK/OrangePi_4G-iot/bootloader/preloader/platform/mt6735/src/SecPlat.a(sej_sk.o)
 .text.sej_set_custom_key
                0x00000000       0x30 /xspace/OrangePi/MTK/OrangePi_4G-iot/bootloader/preloader/platform/mt6735/src/SecPlat.a(sej_sk.o)
 .text.sej_clear_custom_key
                0x00000000       0x18 /xspace/OrangePi/MTK/OrangePi_4G-iot/bootloader/preloader/platform/mt6735/src/SecPlat.a(sej_sk.o)
 .text.sej_dump_jtag_setting
                0x00000000       0x38 /xspace/OrangePi/MTK/OrangePi_4G-iot/bootloader/preloader/platform/mt6735/src/SecPlat.a(sej_sk.o)
 .text.encrypt_custom
                0x00000000       0xf0 /xspace/OrangePi/MTK/OrangePi_4G-iot/bootloader/preloader/platform/mt6735/src/SecPlat.a(sej_sk.o)
 .text.decrypt_custom
                0x00000000       0xf0 /xspace/OrangePi/MTK/OrangePi_4G-iot/bootloader/preloader/platform/mt6735/src/SecPlat.a(sej_sk.o)
 .text.encrypt_by_rid
                0x00000000       0x6c /xspace/OrangePi/MTK/OrangePi_4G-iot/bootloader/preloader/platform/mt6735/src/SecPlat.a(sej_sk.o)
 .text.decrypt_by_rid
                0x00000000       0x6c /xspace/OrangePi/MTK/OrangePi_4G-iot/bootloader/preloader/platform/mt6735/src/SecPlat.a(sej_sk.o)
 .text.sej_jtag_enable
                0x00000000       0x90 /xspace/OrangePi/MTK/OrangePi_4G-iot/bootloader/preloader/platform/mt6735/src/SecPlat.a(sej_sk.o)
 .text.sej_jtag_get_status
                0x00000000       0x34 /xspace/OrangePi/MTK/OrangePi_4G-iot/bootloader/preloader/platform/mt6735/src/SecPlat.a(sej_sk.o)
 .rodata        0x00000000       0x14 /xspace/OrangePi/MTK/OrangePi_4G-iot/bootloader/preloader/platform/mt6735/src/SecPlat.a(sej_sk.o)
 .note.GNU-stack
                0x00000000        0x0 /xspace/OrangePi/MTK/OrangePi_4G-iot/bootloader/preloader/platform/mt6735/src/SecPlat.a(sej_sk.o)
 .text          0x00000000        0x0 /xspace/OrangePi/MTK/OrangePi_4G-iot/bootloader/preloader/platform/mt6735/src/SecPlat.a(sec_boot_tz_common.o)
 .data          0x00000000        0x0 /xspace/OrangePi/MTK/OrangePi_4G-iot/bootloader/preloader/platform/mt6735/src/SecPlat.a(sec_boot_tz_common.o)
 .bss           0x00000000        0x0 /xspace/OrangePi/MTK/OrangePi_4G-iot/bootloader/preloader/platform/mt6735/src/SecPlat.a(sec_boot_tz_common.o)
 .note.GNU-stack
                0x00000000        0x0 /xspace/OrangePi/MTK/OrangePi_4G-iot/bootloader/preloader/platform/mt6735/src/SecPlat.a(sec_boot_tz_common.o)
 .text          0x00000000        0x0 /xspace/OrangePi/MTK/OrangePi_4G-iot/bootloader/preloader/platform/mt6735/src/security/auth/DaVerifyLib.a(sha1.o)
 .data          0x00000000        0x0 /xspace/OrangePi/MTK/OrangePi_4G-iot/bootloader/preloader/platform/mt6735/src/security/auth/DaVerifyLib.a(sha1.o)
 .bss           0x00000000        0x0 /xspace/OrangePi/MTK/OrangePi_4G-iot/bootloader/preloader/platform/mt6735/src/security/auth/DaVerifyLib.a(sha1.o)
 .bss.sha1sum   0x00000000       0x14 /xspace/OrangePi/MTK/OrangePi_4G-iot/bootloader/preloader/platform/mt6735/src/security/auth/DaVerifyLib.a(sha1.o)
 .note.GNU-stack
                0x00000000        0x0 /xspace/OrangePi/MTK/OrangePi_4G-iot/bootloader/preloader/platform/mt6735/src/security/auth/DaVerifyLib.a(sha1.o)

Memory map

 ** file header
                0x00102000       0x34
 ** segment headers
                0x00102034       0x80

.bss            0x00102180     0x7f7c
 .bss.blkdev_list
                0x00102180        0x4 /xspace/OrangePi/MTK/OrangePi_4G-iot/output//obj/blkdev.o
 .bss.g_usb_input_buf
                0x00102184      0x400 /xspace/OrangePi/MTK/OrangePi_4G-iot/output//obj/circbuf.o
 .bss.g_usb_output_buf
                0x00102584      0x400 /xspace/OrangePi/MTK/OrangePi_4G-iot/output//obj/circbuf.o
 .bss.g_da_verified
                0x00102984        0x1 /xspace/OrangePi/MTK/OrangePi_4G-iot/output//obj/download.o
                0x00102984                g_da_verified
 .bss.dlcomport
                0x00102988        0x4 /xspace/OrangePi/MTK/OrangePi_4G-iot/output//obj/download.o
 .bss.g_dram_buf
                0x0010298c        0x4 /xspace/OrangePi/MTK/OrangePi_4G-iot/output//obj/dram_buffer.o
                0x0010298c                g_dram_buf
 .bss.opt_tx_dqs
                0x00102990        0x4 /xspace/OrangePi/MTK/OrangePi_4G-iot/output//obj/dramc_calib.o
                0x00102990                opt_tx_dqs
 .bss.opt_tx_dqm
                0x00102994        0x4 /xspace/OrangePi/MTK/OrangePi_4G-iot/output//obj/dramc_calib.o
                0x00102994                opt_tx_dqm
 .bss.DQS_PRINT
                0x00102998        0x4 /xspace/OrangePi/MTK/OrangePi_4G-iot/output//obj/dramc_calib.o
                0x00102998                DQS_PRINT
 .bss.opt_rx_dqs0
                0x0010299c        0x4 /xspace/OrangePi/MTK/OrangePi_4G-iot/output//obj/dramc_calib.o
                0x0010299c                opt_rx_dqs0
 .bss.opt_tx_dq
                0x001029a0       0x10 /xspace/OrangePi/MTK/OrangePi_4G-iot/output//obj/dramc_calib.o
                0x001029a0                opt_tx_dq
 .bss.opt_rx_dqs1
                0x001029b0        0x4 /xspace/OrangePi/MTK/OrangePi_4G-iot/output//obj/dramc_calib.o
                0x001029b0                opt_rx_dqs1
 .bss.RANK_CURR
                0x001029b4        0x4 /xspace/OrangePi/MTK/OrangePi_4G-iot/output//obj/dramc_calib.o
                0x001029b4                RANK_CURR
 .bss.score     0x001029b8        0x4 /xspace/OrangePi/MTK/OrangePi_4G-iot/output//obj/dramc_dqs_gw.o
                0x001029b8                score
 .bss.dqs_gw    0x001029bc       0x80 /xspace/OrangePi/MTK/OrangePi_4G-iot/output//obj/dramc_dqs_gw.o
 .bss.dqs_gw_cnt_break
                0x00102a3c        0x1 /xspace/OrangePi/MTK/OrangePi_4G-iot/output//obj/dramc_dqs_gw.o
 .bss.opt_gw_fine_value0
                0x00102a40        0x4 /xspace/OrangePi/MTK/OrangePi_4G-iot/output//obj/dramc_dqs_gw.o
                0x00102a40                opt_gw_fine_value0
 .bss.opt_gw_fine_value1
                0x00102a44        0x4 /xspace/OrangePi/MTK/OrangePi_4G-iot/output//obj/dramc_dqs_gw.o
                0x00102a44                opt_gw_fine_value1
 .bss.opt_gw_coarse_value0
                0x00102a48        0x4 /xspace/OrangePi/MTK/OrangePi_4G-iot/output//obj/dramc_dqs_gw.o
                0x00102a48                opt_gw_coarse_value0
 .bss.opt_gw_coarse_value1
                0x00102a4c        0x4 /xspace/OrangePi/MTK/OrangePi_4G-iot/output//obj/dramc_dqs_gw.o
                0x00102a4c                opt_gw_coarse_value1
 .bss.pre_gw_fine_value0
                0x00102a50        0x4 /xspace/OrangePi/MTK/OrangePi_4G-iot/output//obj/dramc_dqs_gw.o
                0x00102a50                pre_gw_fine_value0
 .bss.pre_gw_fine_value1
                0x00102a54        0x4 /xspace/OrangePi/MTK/OrangePi_4G-iot/output//obj/dramc_dqs_gw.o
                0x00102a54                pre_gw_fine_value1
 .bss.pre_gw_coarse_value1
                0x00102a58        0x4 /xspace/OrangePi/MTK/OrangePi_4G-iot/output//obj/dramc_dqs_gw.o
                0x00102a58                pre_gw_coarse_value1
 .bss.max_pwin  0x00102a5c        0xc /xspace/OrangePi/MTK/OrangePi_4G-iot/output//obj/dramc_dqs_gw.o
 .bss.pre_gw_coarse_value0
                0x00102a68        0x4 /xspace/OrangePi/MTK/OrangePi_4G-iot/output//obj/dramc_dqs_gw.o
                0x00102a68                pre_gw_coarse_value0
 .bss.dqs_gw_fine
                0x00102a6c        0x4 /xspace/OrangePi/MTK/OrangePi_4G-iot/output//obj/dramc_dqs_gw.o
 .bss.opt_gw_coarse_value
                0x00102a70        0x4 /xspace/OrangePi/MTK/OrangePi_4G-iot/output//obj/dramc_dqs_gw.o
                0x00102a70                opt_gw_coarse_value
 .bss.cur_pwin  0x00102a74        0xc /xspace/OrangePi/MTK/OrangePi_4G-iot/output//obj/dramc_dqs_gw.o
 .bss.dqs_gw_coarse
                0x00102a80        0x4 /xspace/OrangePi/MTK/OrangePi_4G-iot/output//obj/dramc_dqs_gw.o
 .bss.opt_gw_fine_value
                0x00102a84        0x4 /xspace/OrangePi/MTK/OrangePi_4G-iot/output//obj/dramc_dqs_gw.o
                0x00102a84                opt_gw_fine_value
 .bss.high_score
                0x00102a88        0x4 /xspace/OrangePi/MTK/OrangePi_4G-iot/output//obj/dramc_dqs_gw.o
                0x00102a88                high_score
 .bss.crc32_table_init
                0x00102a8c        0x4 /xspace/OrangePi/MTK/OrangePi_4G-iot/output//obj/efi.o
 .bss.part_ptr  0x00102a90        0x4 /xspace/OrangePi/MTK/OrangePi_4G-iot/output//obj/efi.o
 .bss.drvn      0x00102a94        0x4 /xspace/OrangePi/MTK/OrangePi_4G-iot/output//obj/emi.o
                0x00102a94                drvn
 .bss.drvp      0x00102a98        0x4 /xspace/OrangePi/MTK/OrangePi_4G-iot/output//obj/emi.o
                0x00102a98                drvp
 .bss.found.4871
                0x00102a9c        0x4 /xspace/OrangePi/MTK/OrangePi_4G-iot/output//obj/emi.o
 .bss.DDR_type  0x00102aa0        0x4 /xspace/OrangePi/MTK/OrangePi_4G-iot/output//obj/emi.o
 .bss.enable_combo_dis
                0x00102aa4        0x4 /xspace/OrangePi/MTK/OrangePi_4G-iot/output//obj/emi.o
 .bss.id        0x00102aa8       0x16 /xspace/OrangePi/MTK/OrangePi_4G-iot/output//obj/emi.o
 .bss.fw_id_len
                0x00102ac0        0x4 /xspace/OrangePi/MTK/OrangePi_4G-iot/output//obj/emi.o
 .bss.fan5405_i2c
                0x00102ac4       0x4c /xspace/OrangePi/MTK/OrangePi_4G-iot/output//obj/fan5405.o
 .bss.g_meta_ready_start_time
                0x00102b10        0x4 /xspace/OrangePi/MTK/OrangePi_4G-iot/output//obj/handshake_uart.o
 .bss.khz.5154  0x00102b14        0x4 /xspace/OrangePi/MTK/OrangePi_4G-iot/output//obj/i2c.o
 .bss.I2C_TIMING_REG_BACKUP
                0x00102b18       0x1c /xspace/OrangePi/MTK/OrangePi_4G-iot/output//obj/i2c.o
                0x00102b18                I2C_TIMING_REG_BACKUP
 .bss.mode.5153
                0x00102b34        0x4 /xspace/OrangePi/MTK/OrangePi_4G-iot/output//obj/i2c.o
 .bss.bldr_param
                0x00102b38        0x4 /xspace/OrangePi/MTK/OrangePi_4G-iot/output//obj/main.o
 .bss.g_addr_trans_tbl
                0x00102b3c        0x8 /xspace/OrangePi/MTK/OrangePi_4G-iot/output//obj/mmc_common_inter.o
 .bss.g_emmc_user_size
                0x00102b48        0x8 /xspace/OrangePi/MTK/OrangePi_4G-iot/output//obj/mmc_common_inter.o
                0x00102b48                g_emmc_user_size
 .bss.g_emmc_size
                0x00102b50        0x8 /xspace/OrangePi/MTK/OrangePi_4G-iot/output//obj/mmc_common_inter.o
                0x00102b50                g_emmc_size
 .bss.g_mmc_bdev
                0x00102b58       0x28 /xspace/OrangePi/MTK/OrangePi_4G-iot/output//obj/mmc_common_inter.o
 .bss.g_emmc_addr_trans
                0x00102b80       0x90 /xspace/OrangePi/MTK/OrangePi_4G-iot/output//obj/mmc_common_inter.o
 .bss.sd_card   0x00102c10      0x2dc /xspace/OrangePi/MTK/OrangePi_4G-iot/output//obj/mmc_core.o
 .bss.sd_host   0x00102ef0       0x80 /xspace/OrangePi/MTK/OrangePi_4G-iot/output//obj/mmc_core.o
 .bss.msdc_priv
                0x00102f70       0x90 /xspace/OrangePi/MTK/OrangePi_4G-iot/output//obj/msdc.o
 .bss.msdc_bd_pool
                0x00103000       0x40 /xspace/OrangePi/MTK/OrangePi_4G-iot/output//obj/msdc_dma.o
 .bss.msdc_gpd_pool
                0x00103040       0x38 /xspace/OrangePi/MTK/OrangePi_4G-iot/output//obj/msdc_dma.o
 .bss.g_mt6311_driver_ready
                0x00103078        0x4 /xspace/OrangePi/MTK/OrangePi_4G-iot/output//obj/mt6311.o
                0x00103078                g_mt6311_driver_ready
 .bss.mt6311_i2c
                0x0010307c       0x4c /xspace/OrangePi/MTK/OrangePi_4G-iot/output//obj/mt6311.o
 .bss.g_mt6311_cid
                0x001030c8        0x4 /xspace/OrangePi/MTK/OrangePi_4G-iot/output//obj/mt6311.o
                0x001030c8                g_mt6311_cid
 .bss.g_mt6311_hw_exist
                0x001030cc        0x4 /xspace/OrangePi/MTK/OrangePi_4G-iot/output//obj/mt6311.o
                0x001030cc                g_mt6311_hw_exist
 .bss.ptp_devinfo
                0x001030d0       0x18 /xspace/OrangePi/MTK/OrangePi_4G-iot/output//obj/mt_ptp.o
 .bss.vcore0    0x001030e8        0x4 /xspace/OrangePi/MTK/OrangePi_4G-iot/output//obj/mt_ptp.o
                0x001030e8                vcore0
 .bss.vcore1    0x001030ec        0x4 /xspace/OrangePi/MTK/OrangePi_4G-iot/output//obj/mt_ptp.o
                0x001030ec                vcore1
 .bss.vcore2    0x001030f0        0x4 /xspace/OrangePi/MTK/OrangePi_4G-iot/output//obj/mt_ptp.o
                0x001030f0                vcore2
 .bss.have_550  0x001030f4        0x4 /xspace/OrangePi/MTK/OrangePi_4G-iot/output//obj/mt_ptp.o
                0x001030f4                have_550
 .bss.temmeta   0x001030f8       0x50 /xspace/OrangePi/MTK/OrangePi_4G-iot/output//obj/partition.o
 .bss.tempart   0x00103148       0x10 /xspace/OrangePi/MTK/OrangePi_4G-iot/output//obj/partition.o
 .bss.g_boot_mode
                0x00103158        0x4 /xspace/OrangePi/MTK/OrangePi_4G-iot/output//obj/platform.o
                0x00103158                g_boot_mode
 .bss.g_boot_time
                0x0010315c        0x4 /xspace/OrangePi/MTK/OrangePi_4G-iot/output//obj/platform.o
                0x0010315c                g_boot_time
 .bss.g_kernel_boot_opt
                0x00103160        0x4 /xspace/OrangePi/MTK/OrangePi_4G-iot/output//obj/platform.o
                0x00103160                g_kernel_boot_opt
 .bss.kpoc_flag
                0x00103164        0x4 /xspace/OrangePi/MTK/OrangePi_4G-iot/output//obj/platform.o
                0x00103164                kpoc_flag
 .bss.g_smc_boot_opt
                0x00103168        0x4 /xspace/OrangePi/MTK/OrangePi_4G-iot/output//obj/platform.o
                0x00103168                g_smc_boot_opt
 .bss.sys_stack
                0x0010316c      0xc00 /xspace/OrangePi/MTK/OrangePi_4G-iot/output//obj/platform.o
                0x0010316c                sys_stack
 .bss.g_boot_reason
                0x00103d6c        0x4 /xspace/OrangePi/MTK/OrangePi_4G-iot/output//obj/platform.o
                0x00103d6c                g_boot_reason
 .bss.g_dtb_size
                0x00103d70        0x4 /xspace/OrangePi/MTK/OrangePi_4G-iot/output//obj/platform.o
                0x00103d70                g_dtb_size
 .bss.g_ddr_reserve_enable
                0x00103d74        0x4 /xspace/OrangePi/MTK/OrangePi_4G-iot/output//obj/platform.o
                0x00103d74                g_ddr_reserve_enable
 .bss.g_ddr_reserve_success
                0x00103d78        0x4 /xspace/OrangePi/MTK/OrangePi_4G-iot/output//obj/platform.o
                0x00103d78                g_ddr_reserve_success
 .bss.g_meta_com_type
                0x00103d7c        0x4 /xspace/OrangePi/MTK/OrangePi_4G-iot/output//obj/platform.o
                0x00103d7c                g_meta_com_type
 .bss.g_dtb_addr
                0x00103d80        0x4 /xspace/OrangePi/MTK/OrangePi_4G-iot/output//obj/platform.o
                0x00103d80                g_dtb_addr
 .bss.g_meta_com_id
                0x00103d84        0x4 /xspace/OrangePi/MTK/OrangePi_4G-iot/output//obj/platform.o
                0x00103d84                g_meta_com_id
 .bss.g_lk_boot_opt
                0x00103d88        0x4 /xspace/OrangePi/MTK/OrangePi_4G-iot/output//obj/platform.o
                0x00103d88                g_lk_boot_opt
 .bss.vio18_cal
                0x00103d8c        0x1 /xspace/OrangePi/MTK/OrangePi_4G-iot/output//obj/pmic.o
 .bss.efuse_data
                0x00103d90       0x80 /xspace/OrangePi/MTK/OrangePi_4G-iot/output//obj/pmic.o
                0x00103d90                efuse_data
 .bss.g_charger_in_flag
                0x00103e10        0x4 /xspace/OrangePi/MTK/OrangePi_4G-iot/output//obj/pmic.o
                0x00103e10                g_charger_in_flag
 .bss.g_ret     0x00103e14        0x4 /xspace/OrangePi/MTK/OrangePi_4G-iot/output//obj/pmic.o
                0x00103e14                g_ret
 .bss.g_first_check
                0x00103e18        0x4 /xspace/OrangePi/MTK/OrangePi_4G-iot/output//obj/pmic.o
                0x00103e18                g_first_check
 .bss.log_end   0x00103e1c        0x4 /xspace/OrangePi/MTK/OrangePi_4G-iot/output//obj/print.o
                0x00103e1c                log_end
 .bss.log_sram_buf
                0x00103e20     0x5000 /xspace/OrangePi/MTK/OrangePi_4G-iot/output//obj/print.o
 .bss.log_hdr   0x00108e20        0x4 /xspace/OrangePi/MTK/OrangePi_4G-iot/output//obj/print.o
                0x00108e20                log_hdr
 .bss.log_ptr   0x00108e24        0x4 /xspace/OrangePi/MTK/OrangePi_4G-iot/output//obj/print.o
                0x00108e24                log_ptr
 .bss.g_log_miss_chrs
                0x00108e28        0x4 /xspace/OrangePi/MTK/OrangePi_4G-iot/output//obj/print.o
 .bss.g_log_disable
                0x00108e2c        0x4 /xspace/OrangePi/MTK/OrangePi_4G-iot/output//obj/print.o
 .bss.ram_console
                0x00108e30        0x4 /xspace/OrangePi/MTK/OrangePi_4G-iot/output//obj/ram_console.o
                0x00108e30                ram_console
 .bss.rr_pl     0x00108e34        0x4 /xspace/OrangePi/MTK/OrangePi_4G-iot/output//obj/ram_console.o
                0x00108e34                rr_pl
 .bss.ram_console_size
                0x00108e38        0x4 /xspace/OrangePi/MTK/OrangePi_4G-iot/output//obj/ram_console.o
 .bss.b_is_ram_console_ready
                0x00108e3c        0x1 /xspace/OrangePi/MTK/OrangePi_4G-iot/output//obj/ram_console.o
                0x00108e3c                b_is_ram_console_ready
 .bss.g_rtc_2sec_stat
                0x00108e3d        0x1 /xspace/OrangePi/MTK/OrangePi_4G-iot/output//obj/rtc.o
 .bss.save_stat.4993
                0x00108e3e        0x1 /xspace/OrangePi/MTK/OrangePi_4G-iot/output//obj/rtc.o
 .bss.recovery_flag
                0x00108e3f        0x1 /xspace/OrangePi/MTK/OrangePi_4G-iot/output//obj/rtc.o
 .bss.g_sec_cfg_exists
                0x00108e40        0x4 /xspace/OrangePi/MTK/OrangePi_4G-iot/output//obj/sec.o
                0x00108e40                g_sec_cfg_exists
 .bss.sec_cfg_info
                0x00108e44        0xc /xspace/OrangePi/MTK/OrangePi_4G-iot/output//obj/sec.o
                0x00108e44                sec_cfg_info
 .bss.g_SBC_PUBK
                0x00108e50      0x200 /xspace/OrangePi/MTK/OrangePi_4G-iot/output//obj/sec_key.o
                0x00108e50                g_SBC_PUBK
 .bss.secroimg  0x00109050        0x4 /xspace/OrangePi/MTK/OrangePi_4G-iot/output//obj/sec_secroimg.o
                0x00109050                secroimg
 .bss.bDumpPartInfo
                0x00109054        0x1 /xspace/OrangePi/MTK/OrangePi_4G-iot/output//obj/sec_util.o
                0x00109054                bDumpPartInfo
 .bss.bUsbHandshakeSuccess
                0x00109055        0x1 /xspace/OrangePi/MTK/OrangePi_4G-iot/output//obj/sec_util.o
 .bss.timestamp
                0x00109058        0x4 /xspace/OrangePi/MTK/OrangePi_4G-iot/output//obj/timer.o
 .bss.lastinc   0x0010905c        0x4 /xspace/OrangePi/MTK/OrangePi_4G-iot/output//obj/timer.o
 .bss.atf_log_buf_start
                0x00109060        0x4 /xspace/OrangePi/MTK/OrangePi_4G-iot/output//obj/tz_init.o
 .bss.tee_entry_addr
                0x00109064        0x4 /xspace/OrangePi/MTK/OrangePi_4G-iot/output//obj/tz_init.o
 .bss.set_address
                0x00109068        0x4 /xspace/OrangePi/MTK/OrangePi_4G-iot/output//obj/usbd.o
                0x00109068                set_address
 .bss.ep0_urb   0x0010906c        0x4 /xspace/OrangePi/MTK/OrangePi_4G-iot/output//obj/usbd.o
 .bss.g_usb_port_state
                0x00109070        0x4 /xspace/OrangePi/MTK/OrangePi_4G-iot/output//obj/usbd.o
                0x00109070                g_usb_port_state
 .bss.udc_device
                0x00109074        0x4 /xspace/OrangePi/MTK/OrangePi_4G-iot/output//obj/usbd.o
 .bss.ep0_state
                0x00109078        0x4 /xspace/OrangePi/MTK/OrangePi_4G-iot/output//obj/usbd.o
                0x00109078                ep0_state
 .bss.g_usbphy_ok
                0x0010907c        0x4 /xspace/OrangePi/MTK/OrangePi_4G-iot/output//obj/usbd.o
                0x0010907c                g_usbphy_ok
 .bss.mt6573_rx_urb
                0x00109080      0x41c /xspace/OrangePi/MTK/OrangePi_4G-iot/output//obj/usbtty.o
                0x00109080                mt6573_rx_urb
 .bss.mt_usb_config
                0x0010949c        0xc /xspace/OrangePi/MTK/OrangePi_4G-iot/output//obj/usbtty.o
 .bss.mt6573_ep0_urb
                0x001094a8      0x41c /xspace/OrangePi/MTK/OrangePi_4G-iot/output//obj/usbtty.o
                0x001094a8                mt6573_ep0_urb
 .bss.mt_usb_comm_alternate_interface
                0x001098c4       0x1c /xspace/OrangePi/MTK/OrangePi_4G-iot/output//obj/usbtty.o
 .bss.mt_usb_ep
                0x001098e0       0x70 /xspace/OrangePi/MTK/OrangePi_4G-iot/output//obj/usbtty.o
 .bss.usb_configured
                0x00109950        0x4 /xspace/OrangePi/MTK/OrangePi_4G-iot/output//obj/usbtty.o
                0x00109950                usb_configured
 .bss.usb_string_table
                0x00109954        0x4 /xspace/OrangePi/MTK/OrangePi_4G-iot/output//obj/usbtty.o
                0x00109954                usb_string_table
 .bss.usb_output_buffer
                0x00109958       0x18 /xspace/OrangePi/MTK/OrangePi_4G-iot/output//obj/usbtty.o
 .bss.commInterface
                0x00109970       0x40 /xspace/OrangePi/MTK/OrangePi_4G-iot/output//obj/usbtty.o
 .bss.dataInterface
                0x001099b0       0x2e /xspace/OrangePi/MTK/OrangePi_4G-iot/output//obj/usbtty.o
 .bss.mt_usb_comm_interface
                0x001099e0        0x8 /xspace/OrangePi/MTK/OrangePi_4G-iot/output//obj/usbtty.o
 .bss.mt6573_tx_urb
                0x001099e8      0x41c /xspace/OrangePi/MTK/OrangePi_4G-iot/output//obj/usbtty.o
                0x001099e8                mt6573_tx_urb
 .bss.iserial   0x00109e04       0x28 /xspace/OrangePi/MTK/OrangePi_4G-iot/output//obj/usbtty.o
 .bss.usb_input_buffer
                0x00109e2c       0x18 /xspace/OrangePi/MTK/OrangePi_4G-iot/output//obj/usbtty.o
 .bss.mt_usb_device
                0x00109e44       0x28 /xspace/OrangePi/MTK/OrangePi_4G-iot/output//obj/usbtty.o
 .bss.mt_usb_data_alternate_interface
                0x00109e6c       0x1c /xspace/OrangePi/MTK/OrangePi_4G-iot/output//obj/usbtty.o
 .bss.configuration
                0x00109e88       0x34 /xspace/OrangePi/MTK/OrangePi_4G-iot/output//obj/usbtty.o
 .bss.product   0x00109ebc       0x22 /xspace/OrangePi/MTK/OrangePi_4G-iot/output//obj/usbtty.o
 .bss.manufacturer
                0x00109ede       0x12 /xspace/OrangePi/MTK/OrangePi_4G-iot/output//obj/usbtty.o
 .bss.tool_exists
                0x00109ef0        0x4 /xspace/OrangePi/MTK/OrangePi_4G-iot/output//obj/usbtty.o
                0x00109ef0                tool_exists
 .bss.mt_usb_interface
                0x00109ef4        0x8 /xspace/OrangePi/MTK/OrangePi_4G-iot/output//obj/usbtty.o
 .bss.mt_usb_data_interface
                0x00109efc        0x8 /xspace/OrangePi/MTK/OrangePi_4G-iot/output//obj/usbtty.o
 .bss.status.4693
                0x00109f04        0x4 /xspace/OrangePi/MTK/OrangePi_4G-iot/output//obj/wdt.o
 .bss.g_rgu_status
                0x00109f08        0x4 /xspace/OrangePi/MTK/OrangePi_4G-iot/output//obj/wdt.o
                0x00109f08                g_rgu_status
 .bss.reboot_from
                0x00109f0c        0x4 /xspace/OrangePi/MTK/OrangePi_4G-iot/output//obj/wdt.o
 .bss.rgu_mode  0x00109f10        0x4 /xspace/OrangePi/MTK/OrangePi_4G-iot/output//obj/wdt.o
 .bss.timeout   0x00109f14        0x4 /xspace/OrangePi/MTK/OrangePi_4G-iot/output//obj/wdt.o
 .bss.g_pubk    0x00109f18      0x100 /xspace/OrangePi/MTK/OrangePi_4G-iot/bootloader/preloader/platform/mt6735/src/SecLib.a(seclib_boot.o)
                0x00109f18                g_pubk
 .bss.g_pubk_initialized
                0x0010a018        0x1 /xspace/OrangePi/MTK/OrangePi_4G-iot/bootloader/preloader/platform/mt6735/src/SecLib.a(seclib_boot.o)
                0x0010a018                g_pubk_initialized
 .bss.g_cust    0x0010a01c        0x4 /xspace/OrangePi/MTK/OrangePi_4G-iot/bootloader/preloader/platform/mt6735/src/SecLib.a(seclib.o)
                0x0010a01c                g_cust
 .bss.g_sec_cfg
                0x0010a020        0x4 /xspace/OrangePi/MTK/OrangePi_4G-iot/bootloader/preloader/platform/mt6735/src/SecLib.a(seclib.o)
                0x0010a020                g_sec_cfg
 .bss.g_cust_name
                0x0010a024       0x20 /xspace/OrangePi/MTK/OrangePi_4G-iot/bootloader/preloader/platform/mt6735/src/SecLib.a(seclib.o)
                0x0010a024                g_cust_name
 .bss.heap_start_addr
                0x0010a044        0x4 /xspace/OrangePi/MTK/OrangePi_4G-iot/bootloader/preloader/platform/mt6735/src/security/auth/DaVerifyLib.a(stdlib.o)
                0x0010a044                heap_start_addr
 .bss.heap_max_size
                0x0010a048        0x4 /xspace/OrangePi/MTK/OrangePi_4G-iot/bootloader/preloader/platform/mt6735/src/security/auth/DaVerifyLib.a(stdlib.o)
                0x0010a048                heap_max_size
 .bss.heap_current_alloc
                0x0010a04c        0x4 /xspace/OrangePi/MTK/OrangePi_4G-iot/bootloader/preloader/platform/mt6735/src/security/auth/DaVerifyLib.a(stdlib.o)
                0x0010a04c                heap_current_alloc
 .bss.g_gcpu_hw
                0x0010a050        0x4 /xspace/OrangePi/MTK/OrangePi_4G-iot/bootloader/preloader/platform/mt6735/src/SecPlat.a(gcpu.o)
                0x0010a050                g_gcpu_hw
 .bss.sej_ctx   0x0010a054       0xa8 /xspace/OrangePi/MTK/OrangePi_4G-iot/bootloader/preloader/platform/mt6735/src/SecPlat.a(sej_sk.o)

.secbuf         0x0010a0fc     0x5000
 .secbuf        0x0010a0fc     0x5000 /xspace/OrangePi/MTK/OrangePi_4G-iot/output//obj/sec_util.o
                0x0010a0fc                g_sec_buf

.start          0x00201000      0x164
 .text.start    0xffffffffffffffff      0x15c /xspace/OrangePi/MTK/OrangePi_4G-iot/output//obj/init.o
                0x00201000                bldr_args_addr
                0x00201004                _start
                0x0020110c                jump
                0x00201118                apmcu_icache_invalidate
                0x00201124                apmcu_isb
                0x0020112c                apmcu_disable_icache
                0x00201144                apmcu_disable_smp

.rom_info       0x002011fc      0x3c0
 .data.rom_info
                0x002011fc      0x3c0 /xspace/OrangePi/MTK/OrangePi_4G-iot/output//obj/sec_rom_info.o
                0x002011fc                g_ROM_INFO

.text           0x002015c0    0x16a34
 .text          0x002015c0       0xc8 /xspace/OrangePi/MTK/OrangePi_4G-iot/output//obj/eabi.o
                0x002015c0                __udivsi3
                0x002015c0                __aeabi_uidiv
                0x00201658                __aeabi_uidivmod
                0x00201670                __aeabi_idivmod
 .text          0x002016a0      0x140 /xspace/OrangePi/MTK/OrangePi_4G-iot/output//obj/eabi_idiv.o
                0x002016a0                __divsi3
                0x002016a0                __aeabi_idiv
 .text          0x002017e0      0x14c /xspace/OrangePi/MTK/OrangePi_4G-iot/output//obj/eabi_uldivmod.o
                0x002017e0                __aeabi_uldivmod
 .text.blkdev_register
                0x0020192c       0x24 /xspace/OrangePi/MTK/OrangePi_4G-iot/output//obj/blkdev.o
                0x0020192d                blkdev_register
 .text.blkdev_get
                0x00201950       0x1c /xspace/OrangePi/MTK/OrangePi_4G-iot/output//obj/blkdev.o
                0x00201951                blkdev_get
 .text.blkdev_read
                0x0020196c      0x1c8 /xspace/OrangePi/MTK/OrangePi_4G-iot/output//obj/blkdev.o
                0x0020196d                blkdev_read
 .text.blkdev_write
                0x00201b34      0x1f8 /xspace/OrangePi/MTK/OrangePi_4G-iot/output//obj/blkdev.o
                0x00201b35                blkdev_write
 .text.buf_input_init
                0x00201d2c       0x4c /xspace/OrangePi/MTK/OrangePi_4G-iot/output//obj/circbuf.o
                0x00201d2d                buf_input_init
 .text.buf_output_init
                0x00201d78       0x4c /xspace/OrangePi/MTK/OrangePi_4G-iot/output//obj/circbuf.o
                0x00201d79                buf_output_init
 .text.buf_pop  0x00201dc4       0x34 /xspace/OrangePi/MTK/OrangePi_4G-iot/output//obj/circbuf.o
                0x00201dc5                buf_pop
 .text.buf_push
                0x00201df8       0x2a /xspace/OrangePi/MTK/OrangePi_4G-iot/output//obj/circbuf.o
                0x00201df9                buf_push
 .text.clk_buf_all_on
                0x00201e24      0x238 /xspace/OrangePi/MTK/OrangePi_4G-iot/output//obj/clkbuf_ctl.o
                0x00201e25                clk_buf_all_on
 .text.uffs.part.0
                0x0020205c       0x30 /xspace/OrangePi/MTK/OrangePi_4G-iot/output//obj/device_apc.o
 .text.tz_dapc_set_master_transaction
                0x0020208c       0x38 /xspace/OrangePi/MTK/OrangePi_4G-iot/output//obj/device_apc.o
                0x0020208d                tz_dapc_set_master_transaction
 .text.tz_dapc_sec_init
                0x002020c4       0x16 /xspace/OrangePi/MTK/OrangePi_4G-iot/output//obj/device_apc.o
                0x002020c5                tz_dapc_sec_init
 .text.tz_dapc_sec_postinit
                0x002020da        0x8 /xspace/OrangePi/MTK/OrangePi_4G-iot/output//obj/device_apc.o
                0x002020db                tz_dapc_sec_postinit
 .text.device_APC_dom_setup
                0x002020e4       0x64 /xspace/OrangePi/MTK/OrangePi_4G-iot/output//obj/device_apc.o
                0x002020e5                device_APC_dom_setup
 .text.__div0   0x00202148       0x18 /xspace/OrangePi/MTK/OrangePi_4G-iot/output//obj/div0.o
                0x00202149                __div0
 .text.usbdl_put_byte
                0x00202160       0x24 /xspace/OrangePi/MTK/OrangePi_4G-iot/output//obj/download.o
 .text.usbdl_put_word
                0x00202184       0x28 /xspace/OrangePi/MTK/OrangePi_4G-iot/output//obj/download.o
 .text.usbdl_put_dword
                0x002021ac       0x34 /xspace/OrangePi/MTK/OrangePi_4G-iot/output//obj/download.o
 .text.usbdl_get_word
                0x002021e0       0x30 /xspace/OrangePi/MTK/OrangePi_4G-iot/output//obj/download.o
 .text.usbdl_get_dword
                0x00202210       0x40 /xspace/OrangePi/MTK/OrangePi_4G-iot/output//obj/download.o
 .text.usbdl_read16
                0x00202250       0x76 /xspace/OrangePi/MTK/OrangePi_4G-iot/output//obj/download.o
 .text.usbdl_write16
                0x002022c6       0x8a /xspace/OrangePi/MTK/OrangePi_4G-iot/output//obj/download.o
 .text.usbdl_handler
                0x00202350      0x4ac /xspace/OrangePi/MTK/OrangePi_4G-iot/output//obj/download.o
                0x00202351                usbdl_handler
 .text.init_dram_buffer
                0x002027fc       0x28 /xspace/OrangePi/MTK/OrangePi_4G-iot/output//obj/dram_buffer.o
                0x002027fd                init_dram_buffer
 .text.ta2_enable_write_read
                0x00202824      0x120 /xspace/OrangePi/MTK/OrangePi_4G-iot/output//obj/dramc_calib.o
                0x00202825                ta2_enable_write_read
 .text.do_sw_rx_dq_dqs_calib
                0x00202944      0x338 /xspace/OrangePi/MTK/OrangePi_4G-iot/output//obj/dramc_calib.o
                0x00202945                do_sw_rx_dq_dqs_calib
 .text.do_sw_tx_dq_dqs_calib
                0x00202c7c      0x55c /xspace/OrangePi/MTK/OrangePi_4G-iot/output//obj/dramc_calib.o
                0x00202c7d                do_sw_tx_dq_dqs_calib
 .text.ta2_rx_scan
                0x002031d8       0xf0 /xspace/OrangePi/MTK/OrangePi_4G-iot/output//obj/dramc_calib.o
                0x002031d9                ta2_rx_scan
 .text.DramcRxdatlatCal
                0x002032c8      0x220 /xspace/OrangePi/MTK/OrangePi_4G-iot/output//obj/dramc_calib.o
                0x002032c9                DramcRxdatlatCal
 .text.dramc_calib
                0x002034e8      0x834 /xspace/OrangePi/MTK/OrangePi_4G-iot/output//obj/dramc_calib.o
                0x002034e9                dramc_calib
 .text.dramc_ta2
                0x00203d1c      0x47c /xspace/OrangePi/MTK/OrangePi_4G-iot/output//obj/dramc_dqs_gw.o
                0x00203d1d                dramc_ta2
 .text.ett_print_dqs_gw_before_each_round_of_loop_zero
                0x00204198       0x44 /xspace/OrangePi/MTK/OrangePi_4G-iot/output//obj/dramc_dqs_gw.o
                0x00204199                ett_print_dqs_gw_before_each_round_of_loop_zero
 .text.ett_print_dqs_gw_after_each_round_of_loop_zero
                0x002041dc        0x2 /xspace/OrangePi/MTK/OrangePi_4G-iot/output//obj/dramc_dqs_gw.o
                0x002041dd                ett_print_dqs_gw_after_each_round_of_loop_zero
 .text.ett_calc_dqs_gw_opt_value
                0x002041de        0x2 /xspace/OrangePi/MTK/OrangePi_4G-iot/output//obj/dramc_dqs_gw.o
                0x002041df                ett_calc_dqs_gw_opt_value
 .text.nr_bit_set
                0x002041e0       0x30 /xspace/OrangePi/MTK/OrangePi_4G-iot/output//obj/dramc_dqs_gw.o
 .text.first_bit_set
                0x00204210       0x1c /xspace/OrangePi/MTK/OrangePi_4G-iot/output//obj/dramc_dqs_gw.o
 .text.dqsi_gw_dly_coarse_factor_handler
                0x0020422c       0xa4 /xspace/OrangePi/MTK/OrangePi_4G-iot/output//obj/dramc_dqs_gw.o
                0x0020422d                dqsi_gw_dly_coarse_factor_handler
 .text.dqsi_gw_dly_fine_factor_handler
                0x002042d0       0x80 /xspace/OrangePi/MTK/OrangePi_4G-iot/output//obj/dramc_dqs_gw.o
                0x002042d1                dqsi_gw_dly_fine_factor_handler
 .text.dqs_print
                0x00204350       0x28 /xspace/OrangePi/MTK/OrangePi_4G-iot/output//obj/dramc_dqs_gw.o
                0x00204351                dqs_print
 .text.ett_print_dqs_gw_banner
                0x00204378       0x64 /xspace/OrangePi/MTK/OrangePi_4G-iot/output//obj/dramc_dqs_gw.o
                0x00204379                ett_print_dqs_gw_banner
 .text.ett_print_dqs_gw_before_start_loop_zero
                0x002043dc       0x2c /xspace/OrangePi/MTK/OrangePi_4G-iot/output//obj/dramc_dqs_gw.o
                0x002043dd                ett_print_dqs_gw_before_start_loop_zero
 .text.ett_print_dqs_gw_fine_after_finish_loop_zero
                0x00204408       0x10 /xspace/OrangePi/MTK/OrangePi_4G-iot/output//obj/dramc_dqs_gw.o
                0x00204409                ett_print_dqs_gw_fine_after_finish_loop_zero
 .text.__ett_print_dqs_gw_result.constprop.1
                0x00204418       0xa4 /xspace/OrangePi/MTK/OrangePi_4G-iot/output//obj/dramc_dqs_gw.o
 .text.ett_print_dqs_gw_result_2
                0x002044bc       0x14 /xspace/OrangePi/MTK/OrangePi_4G-iot/output//obj/dramc_dqs_gw.o
 .text.ett_print_dqs_gw_result_1
                0x002044d0       0x14 /xspace/OrangePi/MTK/OrangePi_4G-iot/output//obj/dramc_dqs_gw.o
 .text.ett_recursive_factor_tuning
                0x002044e4       0x94 /xspace/OrangePi/MTK/OrangePi_4G-iot/output//obj/dramc_dqs_gw.o
                0x002044e5                ett_recursive_factor_tuning
 .text.__do_dqs_gw_calib
                0x00204578      0x588 /xspace/OrangePi/MTK/OrangePi_4G-iot/output//obj/dramc_dqs_gw.o
 .text.dqsi_gw_dly_coarse_factor_handler_rank1
                0x00204b00       0xa4 /xspace/OrangePi/MTK/OrangePi_4G-iot/output//obj/dramc_dqs_gw.o
                0x00204b01                dqsi_gw_dly_coarse_factor_handler_rank1
 .text.dqsi_gw_dly_fine_factor_handler_rank1
                0x00204ba4       0x80 /xspace/OrangePi/MTK/OrangePi_4G-iot/output//obj/dramc_dqs_gw.o
                0x00204ba5                dqsi_gw_dly_fine_factor_handler_rank1
 .text.Sequence_Read
                0x00204c24      0x15c /xspace/OrangePi/MTK/OrangePi_4G-iot/output//obj/dramc_dqs_gw.o
                0x00204c25                Sequence_Read
 .text.Do_Read_Test_DDR3
                0x00204d80       0x78 /xspace/OrangePi/MTK/OrangePi_4G-iot/output//obj/dramc_dqs_gw.o
                0x00204d81                Do_Read_Test_DDR3
 .text.Do_Read_Test_DDR2
                0x00204df8       0x5c /xspace/OrangePi/MTK/OrangePi_4G-iot/output//obj/dramc_dqs_gw.o
                0x00204df9                Do_Read_Test_DDR2
 .text.cpu_read_test
                0x00204e54      0x180 /xspace/OrangePi/MTK/OrangePi_4G-iot/output//obj/dramc_dqs_gw.o
                0x00204e55                cpu_read_test
 .text.do_dqs_gw_calib_2
                0x00204fd4       0x28 /xspace/OrangePi/MTK/OrangePi_4G-iot/output//obj/dramc_dqs_gw.o
                0x00204fd5                do_dqs_gw_calib_2
 .text.init_crc32_table
                0x00204ffc       0x60 /xspace/OrangePi/MTK/OrangePi_4G-iot/output//obj/efi.o
 .text.parse_gpt_header.constprop.2
                0x00205060      0x318 /xspace/OrangePi/MTK/OrangePi_4G-iot/output//obj/efi.o
 .text.read_gpt
                0x00205378       0x6c /xspace/OrangePi/MTK/OrangePi_4G-iot/output//obj/efi.o
                0x00205379                read_gpt
 .text.init_lpddr3
                0x002053e4      0x7c8 /xspace/OrangePi/MTK/OrangePi_4G-iot/output//obj/emi.o
 .text.mt_get_dram_type_for_dis
                0x00205bac       0x5c /xspace/OrangePi/MTK/OrangePi_4G-iot/output//obj/emi.o
 .text.DRAM_MRR
                0x00205c08      0x1c0 /xspace/OrangePi/MTK/OrangePi_4G-iot/output//obj/emi.o
                0x00205c09                DRAM_MRR
 .text.mblock_reserve
                0x00205dc8      0x21c /xspace/OrangePi/MTK/OrangePi_4G-iot/output//obj/emi.o
                0x00205dc9                mblock_reserve
 .text.setup_mblock_info
                0x00205fe4       0x4e /xspace/OrangePi/MTK/OrangePi_4G-iot/output//obj/emi.o
                0x00205fe5                setup_mblock_info
 .text.check_dram_CONA_value
                0x00206034       0x9c /xspace/OrangePi/MTK/OrangePi_4G-iot/output//obj/emi.o
                0x00206035                check_dram_CONA_value
 .text.mt_set_DCM_clock
                0x002060d0       0x14 /xspace/OrangePi/MTK/OrangePi_4G-iot/output//obj/emi.o
                0x002060d1                mt_set_DCM_clock
 .text.restore_DDR_regs
                0x002060e4        0x4 /xspace/OrangePi/MTK/OrangePi_4G-iot/output//obj/emi.o
                0x002060e5                restore_DDR_regs
 .text.release_dram
                0x002060e8       0x54 /xspace/OrangePi/MTK/OrangePi_4G-iot/output//obj/emi.o
                0x002060e9                release_dram
 .text.check_ddr_reserve_status
                0x0020613c       0x74 /xspace/OrangePi/MTK/OrangePi_4G-iot/output//obj/emi.o
                0x0020613d                check_ddr_reserve_status
 .text.ett_rextdn_sw_calibration
                0x002061b0      0x18c /xspace/OrangePi/MTK/OrangePi_4G-iot/output//obj/emi.o
                0x002061b1                ett_rextdn_sw_calibration
 .text.mt_get_mdl_number
                0x0020633c      0x2e0 /xspace/OrangePi/MTK/OrangePi_4G-iot/output//obj/emi.o
 .text.mt_get_dram_type
                0x0020661c       0x60 /xspace/OrangePi/MTK/OrangePi_4G-iot/output//obj/emi.o
                0x0020661d                mt_get_dram_type
 .text.get_dram_rank_nr
                0x0020667c       0x44 /xspace/OrangePi/MTK/OrangePi_4G-iot/output//obj/emi.o
                0x0020667d                get_dram_rank_nr
 .text.DFS_ability_detection
                0x002066c0       0xe0 /xspace/OrangePi/MTK/OrangePi_4G-iot/output//obj/emi.o
                0x002066c1                DFS_ability_detection
 .text.get_dram_rank_size
                0x002067a0       0x4c /xspace/OrangePi/MTK/OrangePi_4G-iot/output//obj/emi.o
                0x002067a1                get_dram_rank_size
 .text.get_orig_dram_rank_info
                0x002067ec       0x74 /xspace/OrangePi/MTK/OrangePi_4G-iot/output//obj/emi.o
                0x002067ed                get_orig_dram_rank_info
 .text.mt_set_emi
                0x00206860      0x274 /xspace/OrangePi/MTK/OrangePi_4G-iot/output//obj/emi.o
                0x00206861                mt_set_emi
 .text.fan5405_write_byte
                0x00206ad4       0x34 /xspace/OrangePi/MTK/OrangePi_4G-iot/output//obj/fan5405.o
                0x00206ad5                fan5405_write_byte
 .text.mt_set_gpio_dir_chip
                0x00206b08       0x50 /xspace/OrangePi/MTK/OrangePi_4G-iot/output//obj/gpio.o
                0x00206b09                mt_set_gpio_dir_chip
 .text.mt_set_gpio_pull_enable_chip
                0x00206b58       0x90 /xspace/OrangePi/MTK/OrangePi_4G-iot/output//obj/gpio.o
                0x00206b59                mt_set_gpio_pull_enable_chip
 .text.mt_set_gpio_pull_select_chip
                0x00206be8       0xd8 /xspace/OrangePi/MTK/OrangePi_4G-iot/output//obj/gpio.o
                0x00206be9                mt_set_gpio_pull_select_chip
 .text.mt_set_gpio_out_chip
                0x00206cc0       0x50 /xspace/OrangePi/MTK/OrangePi_4G-iot/output//obj/gpio.o
                0x00206cc1                mt_set_gpio_out_chip
 .text.mt_set_gpio_mode_chip
                0x00206d10       0x4c /xspace/OrangePi/MTK/OrangePi_4G-iot/output//obj/gpio.o
                0x00206d11                mt_set_gpio_mode_chip
 .text.mt_gpio_pin_decrypt
                0x00206d5c        0xa /xspace/OrangePi/MTK/OrangePi_4G-iot/output//obj/gpio.o
                0x00206d5d                mt_gpio_pin_decrypt
 .text.mt_set_gpio_dir
                0x00206d66       0x1c /xspace/OrangePi/MTK/OrangePi_4G-iot/output//obj/gpio.o
                0x00206d67                mt_set_gpio_dir
 .text.mt_set_gpio_pull_enable
                0x00206d82       0x1c /xspace/OrangePi/MTK/OrangePi_4G-iot/output//obj/gpio.o
                0x00206d83                mt_set_gpio_pull_enable
 .text.mt_set_gpio_pull_select
                0x00206d9e       0x1c /xspace/OrangePi/MTK/OrangePi_4G-iot/output//obj/gpio.o
                0x00206d9f                mt_set_gpio_pull_select
 .text.mt_set_gpio_out
                0x00206dba       0x1c /xspace/OrangePi/MTK/OrangePi_4G-iot/output//obj/gpio.o
                0x00206dbb                mt_set_gpio_out
 .text.mt_set_gpio_mode
                0x00206dd6       0x1c /xspace/OrangePi/MTK/OrangePi_4G-iot/output//obj/gpio.o
                0x00206dd7                mt_set_gpio_mode
 .text.mt_gpio_init
                0x00206df2        0x2 /xspace/OrangePi/MTK/OrangePi_4G-iot/output//obj/gpio.o
                0x00206df3                mt_gpio_init
 .text.uart_send
                0x00206df4       0x18 /xspace/OrangePi/MTK/OrangePi_4G-iot/output//obj/handshake_uart.o
 .text.uart_recv
                0x00206e0c        0x4 /xspace/OrangePi/MTK/OrangePi_4G-iot/output//obj/handshake_uart.o
 .text.uart_handshake_init
                0x00206e10       0x58 /xspace/OrangePi/MTK/OrangePi_4G-iot/output//obj/handshake_uart.o
                0x00206e11                uart_handshake_init
 .text.uart_handshake
                0x00206e68       0xf0 /xspace/OrangePi/MTK/OrangePi_4G-iot/output//obj/handshake_uart.o
                0x00206e69                uart_handshake
 .text.usb_recv
                0x00206f58       0x52 /xspace/OrangePi/MTK/OrangePi_4G-iot/output//obj/handshake_usb.o
 .text.usb_send
                0x00206faa       0x16 /xspace/OrangePi/MTK/OrangePi_4G-iot/output//obj/handshake_usb.o
 .text.usb_handshake
                0x00206fc0      0x1bc /xspace/OrangePi/MTK/OrangePi_4G-iot/output//obj/handshake_usb.o
                0x00206fc1                usb_handshake
 .text.i2c_set_speed
                0x0020717c      0x178 /xspace/OrangePi/MTK/OrangePi_4G-iot/output//obj/i2c.o
                0x0020717d                i2c_set_speed
 .text._i2c_dump_info
                0x002072f4        0x2 /xspace/OrangePi/MTK/OrangePi_4G-iot/output//obj/i2c.o
                0x002072f5                _i2c_dump_info
 .text._i2c_write_reg
                0x002072f6      0x1a4 /xspace/OrangePi/MTK/OrangePi_4G-iot/output//obj/i2c.o
                0x002072f7                _i2c_write_reg
 .text._i2c_get_transfer_len
                0x0020749a       0xac /xspace/OrangePi/MTK/OrangePi_4G-iot/output//obj/i2c.o
                0x0020749b                _i2c_get_transfer_len
 .text._i2c_transfer_interface
                0x00207546      0x128 /xspace/OrangePi/MTK/OrangePi_4G-iot/output//obj/i2c.o
                0x00207547                _i2c_transfer_interface
 .text._i2c_check_para
                0x0020766e       0x1a /xspace/OrangePi/MTK/OrangePi_4G-iot/output//obj/i2c.o
                0x0020766f                _i2c_check_para
 .text._config_mt_i2c
                0x00207688       0x84 /xspace/OrangePi/MTK/OrangePi_4G-iot/output//obj/i2c.o
                0x00207689                _config_mt_i2c
 .text.i2c_write
                0x0020770c       0x3e /xspace/OrangePi/MTK/OrangePi_4G-iot/output//obj/i2c.o
                0x0020770d                i2c_write
 .text.i2c_write_read
                0x0020774a       0x44 /xspace/OrangePi/MTK/OrangePi_4G-iot/output//obj/i2c.o
                0x0020774b                i2c_write_read
 .text.i2c_hw_init
                0x00207790       0x20 /xspace/OrangePi/MTK/OrangePi_4G-iot/output//obj/i2c.o
                0x00207791                i2c_hw_init
 .text.arch64   0x002077b0       0xa8 /xspace/OrangePi/MTK/OrangePi_4G-iot/output//obj/init.o
                0x002077b0                jumparch64
                0x00207800                WFI_LOOP
                0x00207808                jumparch64_slt
 .text.mtk_kpd_gpios_get
                0x00207858       0x4c /xspace/OrangePi/MTK/OrangePi_4G-iot/output//obj/keypad.o
                0x00207859                mtk_kpd_gpios_get
 .text.mtk_kpd_gpio_set
                0x002078a4       0x72 /xspace/OrangePi/MTK/OrangePi_4G-iot/output//obj/keypad.o
                0x002078a5                mtk_kpd_gpio_set
 .text.set_kpd_pmic_mode
                0x00207918       0x24 /xspace/OrangePi/MTK/OrangePi_4G-iot/output//obj/keypad.o
                0x00207919                set_kpd_pmic_mode
 .text.enable_PMIC_kpd_clock
                0x0020793c        0x2 /xspace/OrangePi/MTK/OrangePi_4G-iot/output//obj/keypad.o
                0x0020793d                enable_PMIC_kpd_clock
 .text.mtk_detect_key
                0x00207940       0x3c /xspace/OrangePi/MTK/OrangePi_4G-iot/output//obj/keypad.o
                0x00207941                mtk_detect_key
 .text.mtk_detect_dl_keys
                0x0020797c       0x2a /xspace/OrangePi/MTK/OrangePi_4G-iot/output//obj/keypad.o
                0x0020797d                mtk_detect_dl_keys
 .text.wait_for_discon.isra.0.constprop.3
                0x002079a8       0x38 /xspace/OrangePi/MTK/OrangePi_4G-iot/output//obj/main.o
 .text.bldr_cmd_handler
                0x002079e0      0x32c /xspace/OrangePi/MTK/OrangePi_4G-iot/output//obj/main.o
 .text.bldr_load_part
                0x00207d0c       0x40 /xspace/OrangePi/MTK/OrangePi_4G-iot/output//obj/main.o
                0x00207d0d                bldr_load_part
 .text.bldr_load_bootimg_header
                0x00207d4c       0x5c /xspace/OrangePi/MTK/OrangePi_4G-iot/output//obj/main.o
                0x00207d4d                bldr_load_bootimg_header
 .text.bldr_load_tee_part
                0x00207da8       0x54 /xspace/OrangePi/MTK/OrangePi_4G-iot/output//obj/main.o
                0x00207da9                bldr_load_tee_part
 .text.bldr_jump
                0x00207dfc       0x60 /xspace/OrangePi/MTK/OrangePi_4G-iot/output//obj/main.o
                0x00207dfd                bldr_jump
 .text.bldr_jump64
                0x00207e5c       0x60 /xspace/OrangePi/MTK/OrangePi_4G-iot/output//obj/main.o
                0x00207e5d                bldr_jump64
 .text.startup.main
                0x00207ebc      0x30c /xspace/OrangePi/MTK/OrangePi_4G-iot/output//obj/main.o
                0x00207ebd                main
 .text.complex_mem_test
                0x002081c8      0x414 /xspace/OrangePi/MTK/OrangePi_4G-iot/output//obj/memory.o
                0x002081c9                complex_mem_test
 .text.mt_mem_init
                0x002085dc      0x134 /xspace/OrangePi/MTK/OrangePi_4G-iot/output//obj/memory.o
                0x002085dd                mt_mem_init
 .text.mmc_switch_part
                0x00208710       0x7a /xspace/OrangePi/MTK/OrangePi_4G-iot/output//obj/mmc_common_inter.o
 .text.mmc_bwrite
                0x0020878a       0x24 /xspace/OrangePi/MTK/OrangePi_4G-iot/output//obj/mmc_common_inter.o
 .text.mmc_bread
                0x002087ae       0x24 /xspace/OrangePi/MTK/OrangePi_4G-iot/output//obj/mmc_common_inter.o
 .text.mmc_init_device
                0x002087d4      0x24c /xspace/OrangePi/MTK/OrangePi_4G-iot/output//obj/mmc_common_inter.o
                0x002087d5                mmc_init_device
 .text.mmc_get_device_id
                0x00208a20       0xf0 /xspace/OrangePi/MTK/OrangePi_4G-iot/output//obj/mmc_common_inter.o
                0x00208a21                mmc_get_device_id
 .text.unstuff_bits
                0x00208b10       0x3a /xspace/OrangePi/MTK/OrangePi_4G-iot/output//obj/mmc_core.o
 .text.mmc_get_host
                0x00208b4c       0x10 /xspace/OrangePi/MTK/OrangePi_4G-iot/output//obj/mmc_core.o
                0x00208b4d                mmc_get_host
 .text.mmc_get_card
                0x00208b5c       0x14 /xspace/OrangePi/MTK/OrangePi_4G-iot/output//obj/mmc_core.o
                0x00208b5d                mmc_get_card
 .text.mmc_cmd  0x00208b70       0x1e /xspace/OrangePi/MTK/OrangePi_4G-iot/output//obj/mmc_core.o
                0x00208b71                mmc_cmd
 .text.mmc_app_cmd
                0x00208b8e       0x3c /xspace/OrangePi/MTK/OrangePi_4G-iot/output//obj/mmc_core.o
 .text.mmc_send_app_op_cond
                0x00208bca       0x4e /xspace/OrangePi/MTK/OrangePi_4G-iot/output//obj/mmc_core.o
 .text.mmc_send_if_cond
                0x00208c18       0x44 /xspace/OrangePi/MTK/OrangePi_4G-iot/output//obj/mmc_core.o
 .text.mmc_send_op_cond
                0x00208c5c       0x4a /xspace/OrangePi/MTK/OrangePi_4G-iot/output//obj/mmc_core.o
 .text.mmc_read_ext_csd.part.1
                0x00208ca8      0x180 /xspace/OrangePi/MTK/OrangePi_4G-iot/output//obj/mmc_core.o
 .text.mmc_sd_switch.isra.0.constprop.4
                0x00208e28       0xa0 /xspace/OrangePi/MTK/OrangePi_4G-iot/output//obj/mmc_core.o
 .text.mmc_select_voltage
                0x00208ec8       0x1a /xspace/OrangePi/MTK/OrangePi_4G-iot/output//obj/mmc_core.o
                0x00208ec9                mmc_select_voltage
 .text.mmc_go_idle
                0x00208ee2       0x20 /xspace/OrangePi/MTK/OrangePi_4G-iot/output//obj/mmc_core.o
                0x00208ee3                mmc_go_idle
 .text.mmc_send_status
                0x00208f02       0x2c /xspace/OrangePi/MTK/OrangePi_4G-iot/output//obj/mmc_core.o
                0x00208f03                mmc_send_status
 .text.mmc_select_card
                0x00208f2e       0x26 /xspace/OrangePi/MTK/OrangePi_4G-iot/output//obj/mmc_core.o
                0x00208f2f                mmc_select_card
 .text.mmc_send_relative_addr
                0x00208f54       0x56 /xspace/OrangePi/MTK/OrangePi_4G-iot/output//obj/mmc_core.o
                0x00208f55                mmc_send_relative_addr
 .text.mmc_switch
                0x00208fac       0x70 /xspace/OrangePi/MTK/OrangePi_4G-iot/output//obj/mmc_core.o
                0x00208fad                mmc_switch
 .text.mmc_switch_hs
                0x0020901c       0x2a /xspace/OrangePi/MTK/OrangePi_4G-iot/output//obj/mmc_core.o
                0x0020901d                mmc_switch_hs
 .text.mmc_read_ext_csd
                0x00209046       0x10 /xspace/OrangePi/MTK/OrangePi_4G-iot/output//obj/mmc_core.o
                0x00209047                mmc_read_ext_csd
 .text.mmc_set_clock
                0x00209056       0x30 /xspace/OrangePi/MTK/OrangePi_4G-iot/output//obj/mmc_core.o
                0x00209057                mmc_set_clock
 .text.mmc_set_card_detect
                0x00209086       0x26 /xspace/OrangePi/MTK/OrangePi_4G-iot/output//obj/mmc_core.o
                0x00209087                mmc_set_card_detect
 .text.mmc_set_blk_length
                0x002090ac       0x32 /xspace/OrangePi/MTK/OrangePi_4G-iot/output//obj/mmc_core.o
                0x002090ad                mmc_set_blk_length
 .text.mmc_set_bus_width
                0x002090de      0x13a /xspace/OrangePi/MTK/OrangePi_4G-iot/output//obj/mmc_core.o
                0x002090df                mmc_set_bus_width
 .text.mmc_dev_bread
                0x00209218       0xac /xspace/OrangePi/MTK/OrangePi_4G-iot/output//obj/mmc_core.o
                0x00209219                mmc_dev_bread
 .text.mmc_block_read
                0x002092c4       0x5c /xspace/OrangePi/MTK/OrangePi_4G-iot/output//obj/mmc_core.o
                0x002092c5                mmc_block_read
 .text.mmc_block_write
                0x00209320      0x11c /xspace/OrangePi/MTK/OrangePi_4G-iot/output//obj/mmc_core.o
                0x00209321                mmc_block_write
 .text.mmc_stuff_buff
                0x0020943c       0x40 /xspace/OrangePi/MTK/OrangePi_4G-iot/output//obj/mmc_core.o
                0x0020943d                mmc_stuff_buff
 .text.mmc_get_sandisk_fwid
                0x0020947c       0xa4 /xspace/OrangePi/MTK/OrangePi_4G-iot/output//obj/mmc_core.o
                0x0020947d                mmc_get_sandisk_fwid
 .text.mmc_init_mem_card
                0x00209520      0x578 /xspace/OrangePi/MTK/OrangePi_4G-iot/output//obj/mmc_core.o
                0x00209521                mmc_init_mem_card
 .text.mmc_init_card
                0x00209a98       0x9a /xspace/OrangePi/MTK/OrangePi_4G-iot/output//obj/mmc_core.o
                0x00209a99                mmc_init_card
 .text.mmc_init_host
                0x00209b32       0x24 /xspace/OrangePi/MTK/OrangePi_4G-iot/output//obj/mmc_core.o
                0x00209b33                mmc_init_host
 .text.mmc_init
                0x00209b58       0x44 /xspace/OrangePi/MTK/OrangePi_4G-iot/output//obj/mmc_core.o
                0x00209b59                mmc_init
 .text.msdc_set_smt
                0x00209b9c       0xa0 /xspace/OrangePi/MTK/OrangePi_4G-iot/output//obj/msdc.o
                0x00209b9d                msdc_set_smt
 .text.msdc_set_tdsel
                0x00209c3c       0x9c /xspace/OrangePi/MTK/OrangePi_4G-iot/output//obj/msdc.o
                0x00209c3d                msdc_set_tdsel
 .text.msdc_set_rdsel
                0x00209cd8       0x8c /xspace/OrangePi/MTK/OrangePi_4G-iot/output//obj/msdc.o
                0x00209cd9                msdc_set_rdsel
 .text.msdc_set_driving
                0x00209d64      0x1d0 /xspace/OrangePi/MTK/OrangePi_4G-iot/output//obj/msdc.o
                0x00209d65                msdc_set_driving
 .text.msdc_clock
                0x00209f34        0x2 /xspace/OrangePi/MTK/OrangePi_4G-iot/output//obj/msdc.o
                0x00209f35                msdc_clock
 .text.msdc_clr_fifo
                0x00209f36       0x34 /xspace/OrangePi/MTK/OrangePi_4G-iot/output//obj/msdc.o
                0x00209f37                msdc_clr_fifo
 .text.msdc_reset
                0x00209f6a       0x30 /xspace/OrangePi/MTK/OrangePi_4G-iot/output//obj/msdc.o
                0x00209f6b                msdc_reset
 .text.msdc_abort
                0x00209f9a       0x28 /xspace/OrangePi/MTK/OrangePi_4G-iot/output//obj/msdc.o
                0x00209f9b                msdc_abort
 .text.msdc_config_pin
                0x00209fc4      0x1dc /xspace/OrangePi/MTK/OrangePi_4G-iot/output//obj/msdc.o
                0x00209fc5                msdc_config_pin
 .text.msdc_set_startbit
                0x0020a1a0       0x4a /xspace/OrangePi/MTK/OrangePi_4G-iot/output//obj/msdc.o
                0x0020a1a1                msdc_set_startbit
 .text.msdc_set_smpl
                0x0020a1ec      0x354 /xspace/OrangePi/MTK/OrangePi_4G-iot/output//obj/msdc.o
                0x0020a1ed                msdc_set_smpl
 .text.msdc_set_timeout
                0x0020a540       0x98 /xspace/OrangePi/MTK/OrangePi_4G-iot/output//obj/msdc.o
                0x0020a541                msdc_set_timeout
 .text.msdc_set_blklen
                0x0020a5d8        0xa /xspace/OrangePi/MTK/OrangePi_4G-iot/output//obj/msdc.o
                0x0020a5d9                msdc_set_blklen
 .text.msdc_set_blknum
                0x0020a5e2       0x1c /xspace/OrangePi/MTK/OrangePi_4G-iot/output//obj/msdc.o
                0x0020a5e3                msdc_set_blknum
 .text.msdc_set_dmode
                0x0020a600       0x3c /xspace/OrangePi/MTK/OrangePi_4G-iot/output//obj/msdc.o
                0x0020a601                msdc_set_dmode
 .text.msdc_set_pio_bits
                0x0020a63c        0x6 /xspace/OrangePi/MTK/OrangePi_4G-iot/output//obj/msdc.o
                0x0020a63d                msdc_set_pio_bits
 .text.msdc_send_cmd
                0x0020a644      0x180 /xspace/OrangePi/MTK/OrangePi_4G-iot/output//obj/msdc.o
                0x0020a645                msdc_send_cmd
 .text.msdc_wait_rsp
                0x0020a7c4       0xa8 /xspace/OrangePi/MTK/OrangePi_4G-iot/output//obj/msdc.o
                0x0020a7c5                msdc_wait_rsp
 .text.msdc_intr_unmask
                0x0020a86c        0xe /xspace/OrangePi/MTK/OrangePi_4G-iot/output//obj/msdc.o
                0x0020a86d                msdc_intr_unmask
 .text.msdc_dma_send_sandisk_fwid
                0x0020a87a       0x38 /xspace/OrangePi/MTK/OrangePi_4G-iot/output//obj/msdc.o
                0x0020a87b                msdc_dma_send_sandisk_fwid
 .text.msdc_pio_read
                0x0020a8b2       0xba /xspace/OrangePi/MTK/OrangePi_4G-iot/output//obj/msdc.o
                0x0020a8b3                msdc_pio_read
 .text.msdc_pio_write
                0x0020a96c       0x9c /xspace/OrangePi/MTK/OrangePi_4G-iot/output//obj/msdc.o
                0x0020a96d                msdc_pio_write
 .text.msdc_config_clksrc
                0x0020aa08       0x30 /xspace/OrangePi/MTK/OrangePi_4G-iot/output//obj/msdc.o
                0x0020aa09                msdc_config_clksrc
 .text.msdc_config_clock
                0x0020aa38      0x164 /xspace/OrangePi/MTK/OrangePi_4G-iot/output//obj/msdc.o
                0x0020aa39                msdc_config_clock
 .text.msdc_config_bus
                0x0020ab9c       0x24 /xspace/OrangePi/MTK/OrangePi_4G-iot/output//obj/msdc.o
                0x0020ab9d                msdc_config_bus
 .text.msdc_set_host_pwr
                0x0020abc0       0x54 /xspace/OrangePi/MTK/OrangePi_4G-iot/output//obj/msdc.o
                0x0020abc1                msdc_set_host_pwr
 .text.msdc_host_power
                0x0020ac14       0x3a /xspace/OrangePi/MTK/OrangePi_4G-iot/output//obj/msdc.o
                0x0020ac15                msdc_host_power
 .text.msdc_card_power
                0x0020ac4e        0x2 /xspace/OrangePi/MTK/OrangePi_4G-iot/output//obj/msdc.o
                0x0020ac4f                msdc_card_power
 .text.msdc_power
                0x0020ac50       0x30 /xspace/OrangePi/MTK/OrangePi_4G-iot/output//obj/msdc.o
                0x0020ac51                msdc_power
 .text.msdc_reset_tune_counter
                0x0020ac80        0x6 /xspace/OrangePi/MTK/OrangePi_4G-iot/output//obj/msdc.o
                0x0020ac81                msdc_reset_tune_counter
 .text.msdc_tune_cmdrsp
                0x0020ac88      0x260 /xspace/OrangePi/MTK/OrangePi_4G-iot/output//obj/msdc.o
                0x0020ac89                msdc_tune_cmdrsp
 .text.msdc_cmd
                0x0020aee8       0x58 /xspace/OrangePi/MTK/OrangePi_4G-iot/output//obj/msdc.o
                0x0020aee9                msdc_cmd
 .text.msdc_cmd_stop
                0x0020af40       0x38 /xspace/OrangePi/MTK/OrangePi_4G-iot/output//obj/msdc.o
                0x0020af41                msdc_cmd_stop
 .text.msdc_abort_handler
                0x0020af78       0x6e /xspace/OrangePi/MTK/OrangePi_4G-iot/output//obj/msdc.o
                0x0020af79                msdc_abort_handler
 .text.msdc_pio_bread
                0x0020afe8       0xd8 /xspace/OrangePi/MTK/OrangePi_4G-iot/output//obj/msdc.o
                0x0020afe9                msdc_pio_bread
 .text.msdc_pio_bwrite
                0x0020b0c0       0xc0 /xspace/OrangePi/MTK/OrangePi_4G-iot/output//obj/msdc.o
                0x0020b0c1                msdc_pio_bwrite
 .text.msdc_tune_bread
                0x0020b180      0x26c /xspace/OrangePi/MTK/OrangePi_4G-iot/output//obj/msdc.o
                0x0020b181                msdc_tune_bread
 .text.msdc_tune_read
                0x0020b3ec      0x280 /xspace/OrangePi/MTK/OrangePi_4G-iot/output//obj/msdc.o
                0x0020b3ed                msdc_tune_read
 .text.msdc_tune_rw_hs400
                0x0020b66c      0x100 /xspace/OrangePi/MTK/OrangePi_4G-iot/output//obj/msdc.o
                0x0020b66d                msdc_tune_rw_hs400
 .text.msdc_tune_bwrite
                0x0020b76c      0x1bc /xspace/OrangePi/MTK/OrangePi_4G-iot/output//obj/msdc.o
                0x0020b76d                msdc_tune_bwrite
 .text.msdc_init
                0x0020b928      0x458 /xspace/OrangePi/MTK/OrangePi_4G-iot/output//obj/msdc.o
                0x0020b929                msdc_init
 .text.msdc_init_gpd_bd
                0x0020bd80       0x40 /xspace/OrangePi/MTK/OrangePi_4G-iot/output//obj/msdc_dma.o
                0x0020bd81                msdc_init_gpd_bd
 .text.msdc_flush_membuf
                0x0020bdc0        0x2 /xspace/OrangePi/MTK/OrangePi_4G-iot/output//obj/msdc_dma.o
                0x0020bdc1                msdc_flush_membuf
 .text.msdc_cal_checksum
                0x0020bdc2       0x18 /xspace/OrangePi/MTK/OrangePi_4G-iot/output//obj/msdc_dma.o
                0x0020bdc3                msdc_cal_checksum
 .text.msdc_alloc_gpd
                0x0020bdda       0x58 /xspace/OrangePi/MTK/OrangePi_4G-iot/output//obj/msdc_dma.o
                0x0020bddb                msdc_alloc_gpd
 .text.msdc_alloc_bd
                0x0020be32       0x62 /xspace/OrangePi/MTK/OrangePi_4G-iot/output//obj/msdc_dma.o
                0x0020be33                msdc_alloc_bd
 .text.msdc_queue_bd
                0x0020be94       0x30 /xspace/OrangePi/MTK/OrangePi_4G-iot/output//obj/msdc_dma.o
                0x0020be95                msdc_queue_bd
 .text.msdc_add_gpd
                0x0020bec4       0x42 /xspace/OrangePi/MTK/OrangePi_4G-iot/output//obj/msdc_dma.o
                0x0020bec5                msdc_add_gpd
 .text.msdc_reset_gpd
                0x0020bf06       0x12 /xspace/OrangePi/MTK/OrangePi_4G-iot/output//obj/msdc_dma.o
                0x0020bf07                msdc_reset_gpd
 .text.msdc_sg_init
                0x0020bf18       0x5c /xspace/OrangePi/MTK/OrangePi_4G-iot/output//obj/msdc_dma.o
                0x0020bf19                msdc_sg_init
 .text.msdc_dma_init
                0x0020bf74       0x4e /xspace/OrangePi/MTK/OrangePi_4G-iot/output//obj/msdc_dma.o
                0x0020bf75                msdc_dma_init
 .text.msdc_dma_config
                0x0020bfc2      0x210 /xspace/OrangePi/MTK/OrangePi_4G-iot/output//obj/msdc_dma.o
                0x0020bfc3                msdc_dma_config
 .text.msdc_dma_start
                0x0020c1d2       0x36 /xspace/OrangePi/MTK/OrangePi_4G-iot/output//obj/msdc_dma.o
                0x0020c1d3                msdc_dma_start
 .text.msdc_dma_stop
                0x0020c208       0x52 /xspace/OrangePi/MTK/OrangePi_4G-iot/output//obj/msdc_dma.o
                0x0020c209                msdc_dma_stop
 .text.msdc_dma_wait_done
                0x0020c25a       0x94 /xspace/OrangePi/MTK/OrangePi_4G-iot/output//obj/msdc_dma.o
                0x0020c25b                msdc_dma_wait_done
 .text.msdc_dma_transfer
                0x0020c2f0      0x1dc /xspace/OrangePi/MTK/OrangePi_4G-iot/output//obj/msdc_dma.o
                0x0020c2f1                msdc_dma_transfer
 .text.msdc_dma_bread
                0x0020c4cc       0x56 /xspace/OrangePi/MTK/OrangePi_4G-iot/output//obj/msdc_dma.o
                0x0020c4cd                msdc_dma_bread
 .text.msdc_dma_bwrite
                0x0020c522       0x5a /xspace/OrangePi/MTK/OrangePi_4G-iot/output//obj/msdc_dma.o
                0x0020c523                msdc_dma_bwrite
 .text.msdc_irq_init
                0x0020c57c        0x2 /xspace/OrangePi/MTK/OrangePi_4G-iot/output//obj/msdc_irq.o
                0x0020c57d                msdc_irq_init
 .text.msdc_intr_wait
                0x0020c580       0x64 /xspace/OrangePi/MTK/OrangePi_4G-iot/output//obj/msdc_irq.o
                0x0020c581                msdc_intr_wait
 .text.msdc_uffs
                0x0020c5e4       0x32 /xspace/OrangePi/MTK/OrangePi_4G-iot/output//obj/msdc_utils.o
                0x0020c5e5                msdc_uffs
 .text.mt6311_write_byte
                0x0020c618       0x44 /xspace/OrangePi/MTK/OrangePi_4G-iot/output//obj/mt6311.o
                0x0020c619                mt6311_write_byte
 .text.mt6311_read_byte
                0x0020c65c       0x38 /xspace/OrangePi/MTK/OrangePi_4G-iot/output//obj/mt6311.o
                0x0020c65d                mt6311_read_byte
 .text.mt6311_read_interface
                0x0020c694       0x26 /xspace/OrangePi/MTK/OrangePi_4G-iot/output//obj/mt6311.o
                0x0020c695                mt6311_read_interface
 .text.mt6311_config_interface
                0x0020c6ba       0x3c /xspace/OrangePi/MTK/OrangePi_4G-iot/output//obj/mt6311.o
                0x0020c6bb                mt6311_config_interface
 .text.mt6311_dump_register
                0x0020c6f6        0x2 /xspace/OrangePi/MTK/OrangePi_4G-iot/output//obj/mt6311.o
                0x0020c6f7                mt6311_dump_register
 .text.mt6311_hw_init
                0x0020c6f8       0x36 /xspace/OrangePi/MTK/OrangePi_4G-iot/output//obj/mt6311.o
                0x0020c6f9                mt6311_hw_init
 .text.mt6311_get_cid
                0x0020c72e       0x1c /xspace/OrangePi/MTK/OrangePi_4G-iot/output//obj/mt6311.o
                0x0020c72f                mt6311_get_cid
 .text.mt6311_get_swcid
                0x0020c74a       0x1c /xspace/OrangePi/MTK/OrangePi_4G-iot/output//obj/mt6311.o
                0x0020c74b                mt6311_get_swcid
 .text.update_mt6311_chip_id
                0x0020c768       0x24 /xspace/OrangePi/MTK/OrangePi_4G-iot/output//obj/mt6311.o
                0x0020c769                update_mt6311_chip_id
 .text.mt6311_get_chip_id
                0x0020c78c       0x20 /xspace/OrangePi/MTK/OrangePi_4G-iot/output//obj/mt6311.o
                0x0020c78d                mt6311_get_chip_id
 .text.mt6311_hw_component_detect
                0x0020c7ac       0x40 /xspace/OrangePi/MTK/OrangePi_4G-iot/output//obj/mt6311.o
                0x0020c7ad                mt6311_hw_component_detect
 .text.mt6311_hw_reload_dump_log
                0x0020c7ec        0x2 /xspace/OrangePi/MTK/OrangePi_4G-iot/output//obj/mt6311.o
                0x0020c7ed                mt6311_hw_reload_dump_log
 .text.mt6311_hw_reload
                0x0020c7ee       0x7e /xspace/OrangePi/MTK/OrangePi_4G-iot/output//obj/mt6311.o
                0x0020c7ef                mt6311_hw_reload
 .text.mt6311_driver_probe
                0x0020c86c       0x38 /xspace/OrangePi/MTK/OrangePi_4G-iot/output//obj/mt6311.o
                0x0020c86d                mt6311_driver_probe
 .text.mt_set_ptp_info
                0x0020c8a4       0x3c /xspace/OrangePi/MTK/OrangePi_4G-iot/output//obj/mt_ptp.o
                0x0020c8a5                mt_set_ptp_info
 .text.ptp_init
                0x0020c8e0      0x29c /xspace/OrangePi/MTK/OrangePi_4G-iot/output//obj/mt_ptp.o
                0x0020c8e1                ptp_init
 .text.part_init
                0x0020cb7c       0x68 /xspace/OrangePi/MTK/OrangePi_4G-iot/output//obj/partition.o
                0x0020cb7d                part_init
 .text.get_part
                0x0020cbe4       0x60 /xspace/OrangePi/MTK/OrangePi_4G-iot/output//obj/partition.o
                0x0020cbe5                get_part
 .text.part_get
                0x0020cc44        0x4 /xspace/OrangePi/MTK/OrangePi_4G-iot/output//obj/partition.o
                0x0020cc45                part_get
 .text.put_part
                0x0020cc48        0x2 /xspace/OrangePi/MTK/OrangePi_4G-iot/output//obj/partition.o
                0x0020cc49                put_part
 .text.get_part_info
                0x0020cc4c       0x28 /xspace/OrangePi/MTK/OrangePi_4G-iot/output//obj/partition.o
                0x0020cc4d                get_part_info
 .text.part_load
                0x0020cc74      0x114 /xspace/OrangePi/MTK/OrangePi_4G-iot/output//obj/partition.o
                0x0020cc75                part_load
 .text.part_load_raw_part
                0x0020cd88       0x34 /xspace/OrangePi/MTK/OrangePi_4G-iot/output//obj/partition.o
                0x0020cd89                part_load_raw_part
 .text.part_dump
                0x0020cdbc       0x30 /xspace/OrangePi/MTK/OrangePi_4G-iot/output//obj/partition.o
                0x0020cdbd                part_dump
 .text.platform_core_handler
                0x0020cdec       0x14 /xspace/OrangePi/MTK/OrangePi_4G-iot/output//obj/platform.o
                0x0020cded                platform_core_handler
 .text.platform_vusb_on
                0x0020ce00        0x4 /xspace/OrangePi/MTK/OrangePi_4G-iot/output//obj/platform.o
                0x0020ce01                platform_vusb_on
 .text.platform_set_boot_args_by_atag
                0x0020ce04      0x4c0 /xspace/OrangePi/MTK/OrangePi_4G-iot/output//obj/platform.o
                0x0020ce05                platform_set_boot_args_by_atag
 .text.platform_parse_bootopt
                0x0020d2c4      0x1a4 /xspace/OrangePi/MTK/OrangePi_4G-iot/output//obj/platform.o
                0x0020d2c5                platform_parse_bootopt
 .text.platform_set_boot_args
                0x0020d468       0x70 /xspace/OrangePi/MTK/OrangePi_4G-iot/output//obj/platform.o
                0x0020d469                platform_set_boot_args
 .text.platform_set_dl_boot_args
                0x0020d4d8       0x7c /xspace/OrangePi/MTK/OrangePi_4G-iot/output//obj/platform.o
                0x0020d4d9                platform_set_dl_boot_args
 .text.platform_wdt_all_kick
                0x0020d554        0xe /xspace/OrangePi/MTK/OrangePi_4G-iot/output//obj/platform.o
                0x0020d555                platform_wdt_all_kick
 .text.platform_wdt_kick
                0x0020d562        0x4 /xspace/OrangePi/MTK/OrangePi_4G-iot/output//obj/platform.o
                0x0020d563                platform_wdt_kick
 .text.platform_safe_mode
                0x0020d568       0x4c /xspace/OrangePi/MTK/OrangePi_4G-iot/output//obj/platform.o
                0x0020d569                platform_safe_mode
 .text.platform_emergency_download
                0x0020d5b4       0x34 /xspace/OrangePi/MTK/OrangePi_4G-iot/output//obj/platform.o
                0x0020d5b5                platform_emergency_download
 .text.platform_get_mcp_id
                0x0020d5e8       0x1e /xspace/OrangePi/MTK/OrangePi_4G-iot/output//obj/platform.o
                0x0020d5e9                platform_get_mcp_id
 .text.platform_set_chrg_cur
                0x0020d606        0x4 /xspace/OrangePi/MTK/OrangePi_4G-iot/output//obj/platform.o
                0x0020d607                platform_set_chrg_cur
 .text.usb_accessory_in
                0x0020d60a       0x1e /xspace/OrangePi/MTK/OrangePi_4G-iot/output//obj/platform.o
                0x0020d60b                usb_accessory_in
 .text.usb_cable_in
                0x0020d628       0x50 /xspace/OrangePi/MTK/OrangePi_4G-iot/output//obj/platform.o
                0x0020d629                usb_cable_in
 .text.mt_get_chip_hw_code
                0x0020d678        0x8 /xspace/OrangePi/MTK/OrangePi_4G-iot/output//obj/platform.o
                0x0020d679                mt_get_chip_hw_code
 .text.mt_get_chip_sw_ver
                0x0020d680       0x10 /xspace/OrangePi/MTK/OrangePi_4G-iot/output//obj/platform.o
                0x0020d681                mt_get_chip_sw_ver
 .text.platform_com_wait_forever_check
                0x0020d690        0x4 /xspace/OrangePi/MTK/OrangePi_4G-iot/output//obj/platform.o
                0x0020d691                platform_com_wait_forever_check
 .text.check_charger_boost_status
                0x0020d694        0x2 /xspace/OrangePi/MTK/OrangePi_4G-iot/output//obj/platform.o
                0x0020d695                check_charger_boost_status
 .text.platform_pre_init
                0x0020d698      0x120 /xspace/OrangePi/MTK/OrangePi_4G-iot/output//obj/platform.o
                0x0020d699                platform_pre_init
 .text.platform_init
                0x0020d7b8      0x1ec /xspace/OrangePi/MTK/OrangePi_4G-iot/output//obj/platform.o
                0x0020d7b9                platform_init
 .text.platform_post_init
                0x0020d9a4       0x6c /xspace/OrangePi/MTK/OrangePi_4G-iot/output//obj/platform.o
                0x0020d9a5                platform_post_init
 .text.platform_error_handler
                0x0020da10       0x5c /xspace/OrangePi/MTK/OrangePi_4G-iot/output//obj/platform.o
                0x0020da11                platform_error_handler
 .text.platform_assert
                0x0020da6c       0x20 /xspace/OrangePi/MTK/OrangePi_4G-iot/output//obj/platform.o
                0x0020da6d                platform_assert
 .text.mt_get_mem_freq
                0x0020da8c       0x80 /xspace/OrangePi/MTK/OrangePi_4G-iot/output//obj/pll2.o
 .text.mt_mempll_init
                0x0020db0c      0x39c /xspace/OrangePi/MTK/OrangePi_4G-iot/output//obj/pll2.o
                0x0020db0d                mt_mempll_init
 .text.mt_pll_post_init
                0x0020dea8      0x100 /xspace/OrangePi/MTK/OrangePi_4G-iot/output//obj/pll2.o
                0x0020dea9                mt_pll_post_init
 .text.mt_pll_init
                0x0020dfa8      0x2b8 /xspace/OrangePi/MTK/OrangePi_4G-iot/output//obj/pll2.o
                0x0020dfa9                mt_pll_init
 .text.pmic_read_interface
                0x0020e260       0x28 /xspace/OrangePi/MTK/OrangePi_4G-iot/output//obj/pmic.o
                0x0020e261                pmic_read_interface
 .text.pmic_get_register_value
                0x0020e288       0x14 /xspace/OrangePi/MTK/OrangePi_4G-iot/output//obj/pmic.o
                0x0020e289                pmic_get_register_value
 .text.pmic_config_interface
                0x0020e29c       0x3c /xspace/OrangePi/MTK/OrangePi_4G-iot/output//obj/pmic.o
                0x0020e29d                pmic_config_interface
 .text.upmu_set_reg_value
                0x0020e2d8        0xa /xspace/OrangePi/MTK/OrangePi_4G-iot/output//obj/pmic.o
                0x0020e2d9                upmu_set_reg_value
 .text.hw_charger_type_detection
                0x0020e2e4       0x14 /xspace/OrangePi/MTK/OrangePi_4G-iot/output//obj/pmic.o
                0x0020e2e5                hw_charger_type_detection
 .text.mt_charger_type_detection
                0x0020e2f8       0x44 /xspace/OrangePi/MTK/OrangePi_4G-iot/output//obj/pmic.o
                0x0020e2f9                mt_charger_type_detection
 .text.get_MT6328_PMIC_chip_version
                0x0020e33c       0x1e /xspace/OrangePi/MTK/OrangePi_4G-iot/output//obj/pmic.o
                0x0020e33d                get_MT6328_PMIC_chip_version
 .text.pmic_detect_powerkey
                0x0020e35c       0x40 /xspace/OrangePi/MTK/OrangePi_4G-iot/output//obj/pmic.o
                0x0020e35d                pmic_detect_powerkey
 .text.pmic_IsUsbCableIn
                0x0020e39c       0x3c /xspace/OrangePi/MTK/OrangePi_4G-iot/output//obj/pmic.o
                0x0020e39d                pmic_IsUsbCableIn
 .text.pmic_IsVbatDrop
                0x0020e3d8        0xc /xspace/OrangePi/MTK/OrangePi_4G-iot/output//obj/pmic.o
                0x0020e3d9                pmic_IsVbatDrop
 .text.hw_set_cc
                0x0020e3e4        0x2 /xspace/OrangePi/MTK/OrangePi_4G-iot/output//obj/pmic.o
                0x0020e3e5                hw_set_cc
 .text.hw_check_battery
                0x0020e3e8       0x14 /xspace/OrangePi/MTK/OrangePi_4G-iot/output//obj/pmic.o
                0x0020e3e9                hw_check_battery
 .text.PMIC_enable_long_press_reboot
                0x0020e3fc       0x30 /xspace/OrangePi/MTK/OrangePi_4G-iot/output//obj/pmic.o
                0x0020e3fd                PMIC_enable_long_press_reboot
 .text.PMIC_VUSB_EN
                0x0020e42c        0xe /xspace/OrangePi/MTK/OrangePi_4G-iot/output//obj/pmic.o
                0x0020e42d                PMIC_VUSB_EN
 .text.pl_charging
                0x0020e43a        0x2 /xspace/OrangePi/MTK/OrangePi_4G-iot/output//obj/pmic.o
                0x0020e43b                pl_charging
 .text.pl_kick_chr_wdt
                0x0020e43c        0x2 /xspace/OrangePi/MTK/OrangePi_4G-iot/output//obj/pmic.o
                0x0020e43d                pl_kick_chr_wdt
 .text.pl_close_pre_chr_led
                0x0020e43e        0x2 /xspace/OrangePi/MTK/OrangePi_4G-iot/output//obj/pmic.o
                0x0020e43f                pl_close_pre_chr_led
 .text.upmu_get_reg_value
                0x0020e440       0x1a /xspace/OrangePi/MTK/OrangePi_4G-iot/output//obj/pmic.o
                0x0020e441                upmu_get_reg_value
 .text.pmic_read_efuse
                0x0020e45a       0x78 /xspace/OrangePi/MTK/OrangePi_4G-iot/output//obj/pmic.o
                0x0020e45b                pmic_read_efuse
 .text.pmic_6328_efuse_management
                0x0020e4d4      0xcb0 /xspace/OrangePi/MTK/OrangePi_4G-iot/output//obj/pmic.o
                0x0020e4d5                pmic_6328_efuse_management
 .text.upmu_set_rg_vio18_184
                0x0020f184       0x20 /xspace/OrangePi/MTK/OrangePi_4G-iot/output//obj/pmic.o
                0x0020f185                upmu_set_rg_vio18_184
 .text.pmic_disable_usbdl_wo_battery
                0x0020f1a4       0x30 /xspace/OrangePi/MTK/OrangePi_4G-iot/output//obj/pmic.o
                0x0020f1a5                pmic_disable_usbdl_wo_battery
 .text.PMIC_IMM_GetOneChannelValue
                0x0020f1d4      0x16c /xspace/OrangePi/MTK/OrangePi_4G-iot/output//obj/pmic.o
                0x0020f1d5                PMIC_IMM_GetOneChannelValue
 .text.get_bat_sense_volt
                0x0020f340        0xa /xspace/OrangePi/MTK/OrangePi_4G-iot/output//obj/pmic.o
                0x0020f341                get_bat_sense_volt
 .text.get_i_sense_volt
                0x0020f34a        0xa /xspace/OrangePi/MTK/OrangePi_4G-iot/output//obj/pmic.o
                0x0020f34b                get_i_sense_volt
 .text.get_charger_volt
                0x0020f354       0x1a /xspace/OrangePi/MTK/OrangePi_4G-iot/output//obj/pmic.o
                0x0020f355                get_charger_volt
 .text.upmu_is_chr_det
                0x0020f36e       0x1e /xspace/OrangePi/MTK/OrangePi_4G-iot/output//obj/pmic.o
                0x0020f36f                upmu_is_chr_det
 .text.runyee_fan5405_pl_init
                0x0020f38c       0x36 /xspace/OrangePi/MTK/OrangePi_4G-iot/output//obj/pmic.o
                0x0020f38d                runyee_fan5405_pl_init
 .text.kick_charger_wdt
                0x0020f3c2       0x4e /xspace/OrangePi/MTK/OrangePi_4G-iot/output//obj/pmic.o
                0x0020f3c3                kick_charger_wdt
 .text.pchr_turn_on_charging
                0x0020f410       0x6a /xspace/OrangePi/MTK/OrangePi_4G-iot/output//obj/pmic.o
                0x0020f411                pchr_turn_on_charging
 .text.get_charging_current
                0x0020f47a       0x20 /xspace/OrangePi/MTK/OrangePi_4G-iot/output//obj/pmic.o
                0x0020f47b                get_charging_current
 .text.pl_check_bat_protect_status
                0x0020f49c       0xb4 /xspace/OrangePi/MTK/OrangePi_4G-iot/output//obj/pmic.o
                0x0020f49d                pl_check_bat_protect_status
 .text.pmic_init
                0x0020f550      0x118 /xspace/OrangePi/MTK/OrangePi_4G-iot/output//obj/pmic.o
                0x0020f551                pmic_init
 .text.wait_for_fsm_idle
                0x0020f668        0xa /xspace/OrangePi/MTK/OrangePi_4G-iot/output//obj/pmic_wrap_init.o
 .text.wait_for_fsm_vldclr
                0x0020f672        0xc /xspace/OrangePi/MTK/OrangePi_4G-iot/output//obj/pmic_wrap_init.o
 .text.wait_for_sync
                0x0020f67e        0xa /xspace/OrangePi/MTK/OrangePi_4G-iot/output//obj/pmic_wrap_init.o
 .text.wait_for_idle_and_sync
                0x0020f688       0x14 /xspace/OrangePi/MTK/OrangePi_4G-iot/output//obj/pmic_wrap_init.o
 .text.wait_for_cipher_ready
                0x0020f69c        0x8 /xspace/OrangePi/MTK/OrangePi_4G-iot/output//obj/pmic_wrap_init.o
 .text.wait_for_state_ready_init.constprop.5
                0x0020f6a4       0x40 /xspace/OrangePi/MTK/OrangePi_4G-iot/output//obj/pmic_wrap_init.o
 .text._pwrap_wacs2_nochk
                0x0020f6e4       0x98 /xspace/OrangePi/MTK/OrangePi_4G-iot/output//obj/pmic_wrap_init.o
 .text.pwrap_write_nochk
                0x0020f77c        0xe /xspace/OrangePi/MTK/OrangePi_4G-iot/output//obj/pmic_wrap_init.o
 .text.pwrap_read_nochk
                0x0020f78a        0xe /xspace/OrangePi/MTK/OrangePi_4G-iot/output//obj/pmic_wrap_init.o
 .text.pwrap_dump_ap_register
                0x0020f798       0x14 /xspace/OrangePi/MTK/OrangePi_4G-iot/output//obj/pmic_wrap_init.o
                0x0020f799                pwrap_dump_ap_register
 .text.pwrap_wacs2
                0x0020f7ac       0xf4 /xspace/OrangePi/MTK/OrangePi_4G-iot/output//obj/pmic_wrap_init.o
                0x0020f7ad                pwrap_wacs2
 .text.pwrap_read
                0x0020f8a0        0xe /xspace/OrangePi/MTK/OrangePi_4G-iot/output//obj/pmic_wrap_init.o
                0x0020f8a1                pwrap_read
 .text.unlikely.pwrap_read_test
                0x0020f8ae       0x26 /xspace/OrangePi/MTK/OrangePi_4G-iot/output//obj/pmic_wrap_init.o
 .text.pwrap_write
                0x0020f8d4        0xe /xspace/OrangePi/MTK/OrangePi_4G-iot/output//obj/pmic_wrap_init.o
                0x0020f8d5                pwrap_write
 .text.unlikely.pwrap_write_test
                0x0020f8e2       0x3a /xspace/OrangePi/MTK/OrangePi_4G-iot/output//obj/pmic_wrap_init.o
 .text.pwrap_init
                0x0020f91c      0x77c /xspace/OrangePi/MTK/OrangePi_4G-iot/output//obj/pmic_wrap_init.o
                0x0020f91d                pwrap_init
 .text.pwrap_init_preloader
                0x00210098       0x12 /xspace/OrangePi/MTK/OrangePi_4G-iot/output//obj/pmic_wrap_init.o
                0x00210099                pwrap_init_preloader
 .text.outchar  0x002100ac       0x50 /xspace/OrangePi/MTK/OrangePi_4G-iot/output//obj/print.o
 .text.outdec   0x002100fc       0x2a /xspace/OrangePi/MTK/OrangePi_4G-iot/output//obj/print.o
 .text.outstr   0x00210126       0x20 /xspace/OrangePi/MTK/OrangePi_4G-iot/output//obj/print.o
 .text.outhex   0x00210146       0x30 /xspace/OrangePi/MTK/OrangePi_4G-iot/output//obj/print.o
 .text.log_buf_ctrl
                0x00210178      0x104 /xspace/OrangePi/MTK/OrangePi_4G-iot/output//obj/print.o
                0x00210179                log_buf_ctrl
 .text.log_ctrl
                0x0021027c       0x4c /xspace/OrangePi/MTK/OrangePi_4G-iot/output//obj/print.o
                0x0021027d                log_ctrl
 .text.log_status
                0x002102c8       0x14 /xspace/OrangePi/MTK/OrangePi_4G-iot/output//obj/print.o
                0x002102c9                log_status
 .text.vprint   0x002102dc      0x110 /xspace/OrangePi/MTK/OrangePi_4G-iot/output//obj/print.o
                0x002102dd                vprint
 .text.print    0x002103ec       0x1a /xspace/OrangePi/MTK/OrangePi_4G-iot/output//obj/print.o
                0x002103ed                print
 .text.dbg_print
                0x00210406       0x12 /xspace/OrangePi/MTK/OrangePi_4G-iot/output//obj/print.o
                0x00210407                dbg_print
 .text.ram_console_init
                0x00210418       0xa0 /xspace/OrangePi/MTK/OrangePi_4G-iot/output//obj/ram_console.o
                0x00210419                ram_console_init
 .text.ram_console_reboot_reason_save
                0x002104b8       0x28 /xspace/OrangePi/MTK/OrangePi_4G-iot/output//obj/ram_console.o
                0x002104b9                ram_console_reboot_reason_save
 .text.rtc_xosc_check_clock
                0x002104e0       0x2e /xspace/OrangePi/MTK/OrangePi_4G-iot/output//obj/rtc.o
 .text.rtc_eosc_check_clock
                0x0021050e       0x38 /xspace/OrangePi/MTK/OrangePi_4G-iot/output//obj/rtc.o
 .text.rtc_mktime
                0x00210546       0x7c /xspace/OrangePi/MTK/OrangePi_4G-iot/output//obj/rtc.o
 .text.RTC_Read
                0x002105c2       0x18 /xspace/OrangePi/MTK/OrangePi_4G-iot/output//obj/rtc.o
 .text.Write_trigger
                0x002105da       0x34 /xspace/OrangePi/MTK/OrangePi_4G-iot/output//obj/rtc.o
 .text.rtc_gpio_init
                0x0021060e       0x28 /xspace/OrangePi/MTK/OrangePi_4G-iot/output//obj/rtc.o
 .text.rtc_get_xosc_mode
                0x00210636       0x32 /xspace/OrangePi/MTK/OrangePi_4G-iot/output//obj/rtc.o
 .text.rtc_xosc_write
                0x00210668       0x3a /xspace/OrangePi/MTK/OrangePi_4G-iot/output//obj/rtc.o
 .text.get_frequency_meter
                0x002106a2       0xe6 /xspace/OrangePi/MTK/OrangePi_4G-iot/output//obj/rtc.o
 .text.eosc_cali
                0x00210788       0xa6 /xspace/OrangePi/MTK/OrangePi_4G-iot/output//obj/rtc.o
 .text.rtc_measure_four_clock
                0x0021082e       0xa2 /xspace/OrangePi/MTK/OrangePi_4G-iot/output//obj/rtc.o
 .text.Writeif_unlock
                0x002108d0       0x2c /xspace/OrangePi/MTK/OrangePi_4G-iot/output//obj/rtc.o
 .text.rtc_2sec_stat_clear
                0x002108fc       0x62 /xspace/OrangePi/MTK/OrangePi_4G-iot/output//obj/rtc.o
 .text.rtc_android_init
                0x0021095e      0x114 /xspace/OrangePi/MTK/OrangePi_4G-iot/output//obj/rtc.o
 .text.rtc_lpd_init
                0x00210a72       0xce /xspace/OrangePi/MTK/OrangePi_4G-iot/output//obj/rtc.o
 .text.rtc_frequency_meter_check
                0x00210b40       0x9c /xspace/OrangePi/MTK/OrangePi_4G-iot/output//obj/rtc.o
 .text.rtc_first_boot_init
                0x00210bdc       0x86 /xspace/OrangePi/MTK/OrangePi_4G-iot/output//obj/rtc.o
 .text.rtc_recovery_flow
                0x00210c64       0xbc /xspace/OrangePi/MTK/OrangePi_4G-iot/output//obj/rtc.o
 .text.rtc_mark_bypass_pwrkey
                0x00210d20       0x20 /xspace/OrangePi/MTK/OrangePi_4G-iot/output//obj/rtc.o
                0x00210d21                rtc_mark_bypass_pwrkey
 .text.pl_power_off
                0x00210d40       0x24 /xspace/OrangePi/MTK/OrangePi_4G-iot/output//obj/rtc.o
                0x00210d41                pl_power_off
 .text.rtc_save_2sec_stat
                0x00210d64       0x9c /xspace/OrangePi/MTK/OrangePi_4G-iot/output//obj/rtc.o
                0x00210d65                rtc_save_2sec_stat
 .text.rtc_boot_check
                0x00210e00      0x47c /xspace/OrangePi/MTK/OrangePi_4G-iot/output//obj/rtc.o
                0x00210e01                rtc_boot_check
 .text.rtc_2sec_reboot_check
                0x0021127c        0xc /xspace/OrangePi/MTK/OrangePi_4G-iot/output//obj/rtc.o
                0x0021127d                rtc_2sec_reboot_check
 .text.rtc_enable_2sec_reboot
                0x00211288       0x24 /xspace/OrangePi/MTK/OrangePi_4G-iot/output//obj/rtc.o
                0x00211289                rtc_enable_2sec_reboot
 .text.rtc_bbpu_power_on
                0x002112ac       0x34 /xspace/OrangePi/MTK/OrangePi_4G-iot/output//obj/rtc.o
                0x002112ad                rtc_bbpu_power_on
 .text.sec_cfg_load
                0x002112e0       0x4c /xspace/OrangePi/MTK/OrangePi_4G-iot/output//obj/sec.o
                0x002112e1                sec_cfg_load
 .text.sec_malloc_buf_reset
                0x0021132c       0x40 /xspace/OrangePi/MTK/OrangePi_4G-iot/output//obj/sec.o
                0x0021132d                sec_malloc_buf_reset
 .text.sec_lib_init
                0x0021136c      0x10c /xspace/OrangePi/MTK/OrangePi_4G-iot/output//obj/sec.o
                0x0021136d                sec_lib_init
 .text.is_BR_cmd_disabled
                0x00211478       0x50 /xspace/OrangePi/MTK/OrangePi_4G-iot/output//obj/sec.o
                0x00211479                is_BR_cmd_disabled
 .text.sec_auth
                0x002114c8       0x10 /xspace/OrangePi/MTK/OrangePi_4G-iot/output//obj/sec_auth.o
                0x002114c9                sec_auth
 .text.da_auth_init
                0x002114d8       0x38 /xspace/OrangePi/MTK/OrangePi_4G-iot/output//obj/sec_auth.o
                0x002114d9                da_auth_init
 .text.sec_boot_img_check
                0x00211510       0x30 /xspace/OrangePi/MTK/OrangePi_4G-iot/output//obj/sec_boot.o
                0x00211511                sec_boot_img_check
 .text.sec_boot_check
                0x00211540       0xdc /xspace/OrangePi/MTK/OrangePi_4G-iot/output//obj/sec_boot.o
                0x00211541                sec_boot_check
 .text.sec_ctrl_init
                0x0021161c        0x2 /xspace/OrangePi/MTK/OrangePi_4G-iot/output//obj/sec_ctrl.o
                0x0021161d                sec_ctrl_init
 .text.sec_flashtool_cfg_init
                0x0021161e        0x2 /xspace/OrangePi/MTK/OrangePi_4G-iot/output//obj/sec_flashtool_cfg.o
                0x0021161f                sec_flashtool_cfg_init
 .text.sec_key_init
                0x00211620       0x80 /xspace/OrangePi/MTK/OrangePi_4G-iot/output//obj/sec_key.o
                0x00211621                sec_key_init
 .text.is_region_overlap
                0x002116a0       0x1e /xspace/OrangePi/MTK/OrangePi_4G-iot/output//obj/sec_region.o
                0x002116a1                is_region_overlap
 .text.blacklist_check
                0x002116c0       0x34 /xspace/OrangePi/MTK/OrangePi_4G-iot/output//obj/sec_region.o
                0x002116c1                blacklist_check
 .text.sec_region_check
                0x002116f4       0xf0 /xspace/OrangePi/MTK/OrangePi_4G-iot/output//obj/sec_region.o
                0x002116f5                sec_region_check
 .text.sec_rom_info_init
                0x002117e4        0x2 /xspace/OrangePi/MTK/OrangePi_4G-iot/output//obj/sec_rom_info.o
                0x002117e5                sec_rom_info_init
 .text.factory_mode_valid
                0x002117e8       0x4c /xspace/OrangePi/MTK/OrangePi_4G-iot/output//obj/sec_secroimg.o
                0x002117e9                factory_mode_valid
 .text.sec_lib_read_secro
                0x00211834      0x128 /xspace/OrangePi/MTK/OrangePi_4G-iot/output//obj/sec_secroimg.o
                0x00211835                sec_lib_read_secro
 .text.sec2plname
                0x0021195c      0x140 /xspace/OrangePi/MTK/OrangePi_4G-iot/output//obj/sec_util.o
                0x0021195d                sec2plname
 .text.sec_util_get_secro_buf
                0x00211a9c       0x1c /xspace/OrangePi/MTK/OrangePi_4G-iot/output//obj/sec_util.o
                0x00211a9d                sec_util_get_secro_buf
 .text.sec_util_get_img_buf
                0x00211ab8       0x18 /xspace/OrangePi/MTK/OrangePi_4G-iot/output//obj/sec_util.o
                0x00211ab9                sec_util_get_img_buf
 .text.sec_util_get_working_buf
                0x00211ad0       0x14 /xspace/OrangePi/MTK/OrangePi_4G-iot/output//obj/sec_util.o
                0x00211ad1                sec_util_get_working_buf
 .text.sec_util_read_image
                0x00211ae4       0xb8 /xspace/OrangePi/MTK/OrangePi_4G-iot/output//obj/sec_util.o
                0x00211ae5                sec_util_read_image
 .text.sec_util_brom_download_recovery_check
                0x00211b9c      0x108 /xspace/OrangePi/MTK/OrangePi_4G-iot/output//obj/sec_util.o
                0x00211b9d                sec_util_brom_download_recovery_check
 .text.spm_mtcmos_ctrl_cpu0
                0x00211ca4      0x100 /xspace/OrangePi/MTK/OrangePi_4G-iot/output//obj/spm_mtcmos.o
                0x00211ca5                spm_mtcmos_ctrl_cpu0
 .text.spm_mtcmos_ctrl_cpu1
                0x00211da4      0x100 /xspace/OrangePi/MTK/OrangePi_4G-iot/output//obj/spm_mtcmos.o
                0x00211da5                spm_mtcmos_ctrl_cpu1
 .text.spm_mtcmos_ctrl_cpu2
                0x00211ea4      0x100 /xspace/OrangePi/MTK/OrangePi_4G-iot/output//obj/spm_mtcmos.o
                0x00211ea5                spm_mtcmos_ctrl_cpu2
 .text.spm_mtcmos_ctrl_cpu3
                0x00211fa4      0x100 /xspace/OrangePi/MTK/OrangePi_4G-iot/output//obj/spm_mtcmos.o
                0x00211fa5                spm_mtcmos_ctrl_cpu3
 .text.spm_mtcmos_ctrl_cpu
                0x002120a4       0x18 /xspace/OrangePi/MTK/OrangePi_4G-iot/output//obj/spm_mtcmos.o
                0x002120a5                spm_mtcmos_ctrl_cpu
 .text.spm_mtcmos_ctrl_cpusys1
                0x002120bc      0x124 /xspace/OrangePi/MTK/OrangePi_4G-iot/output//obj/spm_mtcmos.o
                0x002120bd                spm_mtcmos_ctrl_cpusys1
 .text.spm_mtcmos_ctrl_cpu4
                0x002121e0      0x158 /xspace/OrangePi/MTK/OrangePi_4G-iot/output//obj/spm_mtcmos.o
                0x002121e1                spm_mtcmos_ctrl_cpu4
 .text.spm_mtcmos_ctrl_cpu5
                0x00212338      0x15c /xspace/OrangePi/MTK/OrangePi_4G-iot/output//obj/spm_mtcmos.o
                0x00212339                spm_mtcmos_ctrl_cpu5
 .text.spm_mtcmos_ctrl_cpu6
                0x00212494      0x15c /xspace/OrangePi/MTK/OrangePi_4G-iot/output//obj/spm_mtcmos.o
                0x00212495                spm_mtcmos_ctrl_cpu6
 .text.spm_mtcmos_ctrl_cpu7
                0x002125f0      0x15c /xspace/OrangePi/MTK/OrangePi_4G-iot/output//obj/spm_mtcmos.o
                0x002125f1                spm_mtcmos_ctrl_cpu7
 .text.spm_mtcmos_ctrl_disp
                0x0021274c      0x104 /xspace/OrangePi/MTK/OrangePi_4G-iot/output//obj/spm_mtcmos.o
                0x0021274d                spm_mtcmos_ctrl_disp
 .text.strchr   0x00212850       0x16 /xspace/OrangePi/MTK/OrangePi_4G-iot/output//obj/stdlib.o
                0x00212851                strchr
 .text.atoi     0x00212868       0x58 /xspace/OrangePi/MTK/OrangePi_4G-iot/output//obj/stdlib.o
                0x00212869                atoi
 .text.strlen   0x002128c0       0x10 /xspace/OrangePi/MTK/OrangePi_4G-iot/output//obj/string.o
                0x002128c1                strlen
 .text.strcmp   0x002128d0       0x1a /xspace/OrangePi/MTK/OrangePi_4G-iot/output//obj/string.o
                0x002128d1                strcmp
 .text.strncmp  0x002128ea       0x22 /xspace/OrangePi/MTK/OrangePi_4G-iot/output//obj/string.o
                0x002128eb                strncmp
 .text.memset   0x0021290c       0x10 /xspace/OrangePi/MTK/OrangePi_4G-iot/output//obj/string.o
                0x0021290d                memset
 .text.memcpy   0x0021291c       0x12 /xspace/OrangePi/MTK/OrangePi_4G-iot/output//obj/string.o
                0x0021291d                memcpy
 .text.memcmp   0x0021292e       0x1c /xspace/OrangePi/MTK/OrangePi_4G-iot/output//obj/string.o
                0x0021292f                memcmp
 .text.memmove  0x0021294a       0x28 /xspace/OrangePi/MTK/OrangePi_4G-iot/output//obj/string.o
                0x0021294b                memmove
 .text.dsb      0x00212972        0x6 /xspace/OrangePi/MTK/OrangePi_4G-iot/output//obj/sync_write.o
                0x00212973                dsb
 .text.mt_reg_sync_writel
                0x00212978        0x6 /xspace/OrangePi/MTK/OrangePi_4G-iot/output//obj/sync_write.o
                0x00212979                mt_reg_sync_writel
 .text.mt_reg_sync_writeb
                0x0021297e        0x8 /xspace/OrangePi/MTK/OrangePi_4G-iot/output//obj/sync_write.o
                0x0021297f                mt_reg_sync_writeb
 .text.gpt4_get_current_tick
                0x00212988        0xc /xspace/OrangePi/MTK/OrangePi_4G-iot/output//obj/timer.o
                0x00212989                gpt4_get_current_tick
 .text.gpt4_timeout_tick
                0x00212994       0x22 /xspace/OrangePi/MTK/OrangePi_4G-iot/output//obj/timer.o
                0x00212995                gpt4_timeout_tick
 .text.gpt4_time2tick_us
                0x002129b8       0x18 /xspace/OrangePi/MTK/OrangePi_4G-iot/output//obj/timer.o
                0x002129b9                gpt4_time2tick_us
 .text.gpt_busy_wait_us
                0x002129d0       0x1c /xspace/OrangePi/MTK/OrangePi_4G-iot/output//obj/timer.o
                0x002129d1                gpt_busy_wait_us
 .text.gpt_busy_wait_ms
                0x002129ec       0x44 /xspace/OrangePi/MTK/OrangePi_4G-iot/output//obj/timer.o
                0x002129ed                gpt_busy_wait_ms
 .text.get_timer
                0x00212a30       0x88 /xspace/OrangePi/MTK/OrangePi_4G-iot/output//obj/timer.o
                0x00212a31                get_timer
 .text.mdelay   0x00212ab8        0x4 /xspace/OrangePi/MTK/OrangePi_4G-iot/output//obj/timer.o
                0x00212ab9                mdelay
 .text.udelay   0x00212abc        0x4 /xspace/OrangePi/MTK/OrangePi_4G-iot/output//obj/timer.o
                0x00212abd                udelay
 .text.mtk_timer_init
                0x00212ac0       0x44 /xspace/OrangePi/MTK/OrangePi_4G-iot/output//obj/timer.o
                0x00212ac1                mtk_timer_init
 .text.emi_mpu_set_region_protection
                0x00212b04      0x158 /xspace/OrangePi/MTK/OrangePi_4G-iot/output//obj/tz_emi_mpu.o
                0x00212b05                emi_mpu_set_region_protection
 .text.tz_emi_mpu_init
                0x00212c5c       0x70 /xspace/OrangePi/MTK/OrangePi_4G-iot/output//obj/tz_emi_mpu.o
                0x00212c5d                tz_emi_mpu_init
 .text.tee_get_secmem_start
                0x00212ccc       0x10 /xspace/OrangePi/MTK/OrangePi_4G-iot/output//obj/tz_init.o
                0x00212ccd                tee_get_secmem_start
 .text.tee_get_secmem_size
                0x00212cdc        0x8 /xspace/OrangePi/MTK/OrangePi_4G-iot/output//obj/tz_init.o
                0x00212cdd                tee_get_secmem_size
 .text.tee_verify_image
                0x00212ce4       0xa0 /xspace/OrangePi/MTK/OrangePi_4G-iot/output//obj/tz_init.o
                0x00212ce5                tee_verify_image
 .text.tee_get_load_addr
                0x00212d84        0x4 /xspace/OrangePi/MTK/OrangePi_4G-iot/output//obj/tz_init.o
                0x00212d85                tee_get_load_addr
 .text.trustzone_pre_init
                0x00212d88       0x68 /xspace/OrangePi/MTK/OrangePi_4G-iot/output//obj/tz_init.o
                0x00212d89                trustzone_pre_init
 .text.trustzone_post_init
                0x00212df0       0xec /xspace/OrangePi/MTK/OrangePi_4G-iot/output//obj/tz_init.o
                0x00212df1                trustzone_post_init
 .text.trustzone_jump
                0x00212edc       0x84 /xspace/OrangePi/MTK/OrangePi_4G-iot/output//obj/tz_init.o
                0x00212edd                trustzone_jump
 .text.tz_sec_mem_init
                0x00212f60        0x4 /xspace/OrangePi/MTK/OrangePi_4G-iot/output//obj/tz_sec_cfg.o
                0x00212f61                tz_sec_mem_init
 .text.tz_sram_sec_init
                0x00212f64       0xbc /xspace/OrangePi/MTK/OrangePi_4G-iot/output//obj/tz_sec_cfg.o
                0x00212f65                tz_sram_sec_init
 .text.mtk_uart_power_on
                0x00213020       0x58 /xspace/OrangePi/MTK/OrangePi_4G-iot/output//obj/uart.o
                0x00213021                mtk_uart_power_on
 .text.serial_setbrg
                0x00213078       0x78 /xspace/OrangePi/MTK/OrangePi_4G-iot/output//obj/uart.o
                0x00213079                serial_setbrg
 .text.mtk_serial_set_current_uart
                0x002130f0       0x14 /xspace/OrangePi/MTK/OrangePi_4G-iot/output//obj/uart.o
                0x002130f1                mtk_serial_set_current_uart
 .text.mtk_uart_init
                0x00213104      0x154 /xspace/OrangePi/MTK/OrangePi_4G-iot/output//obj/uart.o
                0x00213105                mtk_uart_init
 .text.PutUARTByte
                0x00213258       0x30 /xspace/OrangePi/MTK/OrangePi_4G-iot/output//obj/uart.o
                0x00213259                PutUARTByte
 .text.GetUARTBytes
                0x00213288       0x5c /xspace/OrangePi/MTK/OrangePi_4G-iot/output//obj/uart.o
                0x00213289                GetUARTBytes
 .text.mt_read_fifo
                0x002132e4       0xac /xspace/OrangePi/MTK/OrangePi_4G-iot/output//obj/usbd.o
 .text.mt_write_fifo
                0x00213390       0x6c /xspace/OrangePi/MTK/OrangePi_4G-iot/output//obj/usbd.o
 .text.mt_find_ep
                0x002133fc       0x3c /xspace/OrangePi/MTK/OrangePi_4G-iot/output//obj/usbd.o
 .text.mt_udc_flush_fifo
                0x00213438       0x50 /xspace/OrangePi/MTK/OrangePi_4G-iot/output//obj/usbd.o
 .text.mt_udc_ep0_write
                0x00213488       0x78 /xspace/OrangePi/MTK/OrangePi_4G-iot/output//obj/usbd.o
 .text.mt_udc_reset
                0x00213500       0xa0 /xspace/OrangePi/MTK/OrangePi_4G-iot/output//obj/usbd.o
 .text.copy_desc
                0x002135a0       0x2e /xspace/OrangePi/MTK/OrangePi_4G-iot/output//obj/usbd.o
 .text.mt_udc_irq
                0x002135d0      0x51c /xspace/OrangePi/MTK/OrangePi_4G-iot/output//obj/usbd.o
                0x002135d1                mt_udc_irq
 .text.mt_ep_write
                0x00213aec       0x3c /xspace/OrangePi/MTK/OrangePi_4G-iot/output//obj/usbd.o
                0x00213aed                mt_ep_write
 .text.mt_ep_busy
                0x00213b28       0x2c /xspace/OrangePi/MTK/OrangePi_4G-iot/output//obj/usbd.o
                0x00213b29                mt_ep_busy
 .text.mt_setup_ep
                0x00213b54      0x16c /xspace/OrangePi/MTK/OrangePi_4G-iot/output//obj/usbd.o
                0x00213b55                mt_setup_ep
 .text.mt_usb_connect_internal
                0x00213cc0       0x10 /xspace/OrangePi/MTK/OrangePi_4G-iot/output//obj/usbd.o
                0x00213cc1                mt_usb_connect_internal
 .text.mt_usb_disconnect_internal
                0x00213cd0       0x10 /xspace/OrangePi/MTK/OrangePi_4G-iot/output//obj/usbd.o
                0x00213cd1                mt_usb_disconnect_internal
 .text.udc_enable
                0x00213ce0       0x3c /xspace/OrangePi/MTK/OrangePi_4G-iot/output//obj/usbd.o
                0x00213ce1                udc_enable
 .text.usb_service_offline
                0x00213d1c        0xe /xspace/OrangePi/MTK/OrangePi_4G-iot/output//obj/usbd.o
                0x00213d1d                usb_service_offline
 .text.mt_usb_phy_poweron
                0x00213d2c       0x88 /xspace/OrangePi/MTK/OrangePi_4G-iot/output//obj/usbphy.o
                0x00213d2d                mt_usb_phy_poweron
 .text.mt_usb_phy_savecurrent
                0x00213db4       0x98 /xspace/OrangePi/MTK/OrangePi_4G-iot/output//obj/usbphy.o
                0x00213db5                mt_usb_phy_savecurrent
 .text.mt_usb_phy_recover
                0x00213e4c       0x84 /xspace/OrangePi/MTK/OrangePi_4G-iot/output//obj/usbphy.o
                0x00213e4d                mt_usb_phy_recover
 .text.str2wide
                0x00213ed0       0x20 /xspace/OrangePi/MTK/OrangePi_4G-iot/output//obj/usbtty.o
 .text.ep_to_buf.constprop.0
                0x00213ef0       0x2c /xspace/OrangePi/MTK/OrangePi_4G-iot/output//obj/usbtty.o
 .text.usb_alloc_urb
                0x00213f1c       0x50 /xspace/OrangePi/MTK/OrangePi_4G-iot/output//obj/usbtty.o
                0x00213f1d                usb_alloc_urb
 .text.usbdl_init
                0x00213f6c      0x2fc /xspace/OrangePi/MTK/OrangePi_4G-iot/output//obj/usbtty.o
                0x00213f6d                usbdl_init
 .text.tool_is_present
                0x00214268       0x14 /xspace/OrangePi/MTK/OrangePi_4G-iot/output//obj/usbtty.o
                0x00214269                tool_is_present
 .text.tool_state_update
                0x0021427c       0x14 /xspace/OrangePi/MTK/OrangePi_4G-iot/output//obj/usbtty.o
                0x0021427d                tool_state_update
 .text.usbdl_configured
                0x00214290       0x14 /xspace/OrangePi/MTK/OrangePi_4G-iot/output//obj/usbtty.o
                0x00214291                usbdl_configured
 .text.enable_highspeed
                0x002142a4       0x5c /xspace/OrangePi/MTK/OrangePi_4G-iot/output//obj/usbtty.o
                0x002142a5                enable_highspeed
 .text.config_usbtty
                0x00214300       0x44 /xspace/OrangePi/MTK/OrangePi_4G-iot/output//obj/usbtty.o
                0x00214301                config_usbtty
 .text.service_interrupts
                0x00214344       0x6c /xspace/OrangePi/MTK/OrangePi_4G-iot/output//obj/usbtty.o
                0x00214345                service_interrupts
 .text.usbdl_poll
                0x002143b0       0x80 /xspace/OrangePi/MTK/OrangePi_4G-iot/output//obj/usbtty.o
                0x002143b1                usbdl_poll
 .text.usbdl_flush
                0x00214430       0x4c /xspace/OrangePi/MTK/OrangePi_4G-iot/output//obj/usbtty.o
                0x00214431                usbdl_flush
 .text.mt_usbtty_flush
                0x0021447c        0x4 /xspace/OrangePi/MTK/OrangePi_4G-iot/output//obj/usbtty.o
                0x0021447d                mt_usbtty_flush
 .text.mt_usbtty_getcn
                0x00214480       0x60 /xspace/OrangePi/MTK/OrangePi_4G-iot/output//obj/usbtty.o
                0x00214481                mt_usbtty_getcn
 .text.mt_usbtty_putcn
                0x002144e0       0x6c /xspace/OrangePi/MTK/OrangePi_4G-iot/output//obj/usbtty.o
                0x002144e1                mt_usbtty_putcn
 .text.mt_usbtty_puts
                0x0021454c       0x58 /xspace/OrangePi/MTK/OrangePi_4G-iot/output//obj/usbtty.o
                0x0021454d                mt_usbtty_puts
 .text.mt_usbtty_query_data_size
                0x002145a4       0x2c /xspace/OrangePi/MTK/OrangePi_4G-iot/output//obj/usbtty.o
                0x002145a5                mt_usbtty_query_data_size
 .text.mtk_wdt_check_status
                0x002145d0       0x24 /xspace/OrangePi/MTK/OrangePi_4G-iot/output//obj/wdt.o
 .text.mtk_wdt_reset
                0x002145f4       0x4c /xspace/OrangePi/MTK/OrangePi_4G-iot/output//obj/wdt.o
 .text.mtk_wdt_restart
                0x00214640       0x10 /xspace/OrangePi/MTK/OrangePi_4G-iot/output//obj/wdt.o
                0x00214641                mtk_wdt_restart
 .text.mtk_wdt_boot_check
                0x00214650       0x44 /xspace/OrangePi/MTK/OrangePi_4G-iot/output//obj/wdt.o
                0x00214651                mtk_wdt_boot_check
 .text.mtk_wdt_init
                0x00214694      0x2e4 /xspace/OrangePi/MTK/OrangePi_4G-iot/output//obj/wdt.o
                0x00214695                mtk_wdt_init
 .text.mtk_arch_reset
                0x00214978       0x18 /xspace/OrangePi/MTK/OrangePi_4G-iot/output//obj/wdt.o
                0x00214979                mtk_arch_reset
 .text.rgu_dram_reserved
                0x00214990       0x7c /xspace/OrangePi/MTK/OrangePi_4G-iot/output//obj/wdt.o
                0x00214991                rgu_dram_reserved
 .text.rgu_is_reserve_ddr_enabled
                0x00214a0c       0x10 /xspace/OrangePi/MTK/OrangePi_4G-iot/output//obj/wdt.o
                0x00214a0d                rgu_is_reserve_ddr_enabled
 .text.rgu_is_dram_slf
                0x00214a1c       0x30 /xspace/OrangePi/MTK/OrangePi_4G-iot/output//obj/wdt.o
                0x00214a1d                rgu_is_dram_slf
 .text.rgu_release_rg_dramc_conf_iso
                0x00214a4c       0x58 /xspace/OrangePi/MTK/OrangePi_4G-iot/output//obj/wdt.o
                0x00214a4d                rgu_release_rg_dramc_conf_iso
 .text.rgu_release_rg_dramc_iso
                0x00214aa4       0x58 /xspace/OrangePi/MTK/OrangePi_4G-iot/output//obj/wdt.o
                0x00214aa5                rgu_release_rg_dramc_iso
 .text.rgu_release_rg_dramc_sref
                0x00214afc       0x60 /xspace/OrangePi/MTK/OrangePi_4G-iot/output//obj/wdt.o
                0x00214afd                rgu_release_rg_dramc_sref
 .text.rgu_is_reserve_ddr_mode_success
                0x00214b5c       0x30 /xspace/OrangePi/MTK/OrangePi_4G-iot/output//obj/wdt.o
                0x00214b5d                rgu_is_reserve_ddr_mode_success
 .text.seclib_sec_boot_enabled
                0x00214b8c       0x94 /xspace/OrangePi/MTK/OrangePi_4G-iot/bootloader/preloader/platform/mt6735/src/SecLib.a(seclib_boot.o)
                0x00214b8d                seclib_sec_boot_enabled
 .text.seclib_set_pubk
                0x00214c20       0x44 /xspace/OrangePi/MTK/OrangePi_4G-iot/bootloader/preloader/platform/mt6735/src/SecLib.a(seclib_boot.o)
                0x00214c21                seclib_set_pubk
 .text.seclib_cfg_print_status
                0x00214c64        0x2 /xspace/OrangePi/MTK/OrangePi_4G-iot/bootloader/preloader/platform/mt6735/src/SecLib.a(seclib_boot.o)
                0x00214c65                seclib_cfg_print_status
 .text.seclib_data_auth
                0x00214c68      0x124 /xspace/OrangePi/MTK/OrangePi_4G-iot/bootloader/preloader/platform/mt6735/src/SecLib.a(seclib_boot.o)
                0x00214c69                seclib_data_auth
 .text.seclib_image_check
                0x00214d8c      0x300 /xspace/OrangePi/MTK/OrangePi_4G-iot/bootloader/preloader/platform/mt6735/src/SecLib.a(seclib_boot.o)
                0x00214d8d                seclib_image_check
 .text.seclib_sec_usbdl_enabled
                0x0021508c       0x5c /xspace/OrangePi/MTK/OrangePi_4G-iot/bootloader/preloader/platform/mt6735/src/SecLib.a(seclib_dl.o)
                0x0021508d                seclib_sec_usbdl_enabled
 .text.seclib_read_sbc_key
                0x002150e8       0x48 /xspace/OrangePi/MTK/OrangePi_4G-iot/bootloader/preloader/platform/mt6735/src/SecLib.a(seclib_key.o)
                0x002150e9                seclib_read_sbc_key
 .text.seclib_read_sec_cmd_cfg
                0x00215130       0x40 /xspace/OrangePi/MTK/OrangePi_4G-iot/bootloader/preloader/platform/mt6735/src/SecLib.a(seclib_key.o)
                0x00215131                seclib_read_sec_cmd_cfg
 .text.seclib_sej_init
                0x00215170       0x1c /xspace/OrangePi/MTK/OrangePi_4G-iot/bootloader/preloader/platform/mt6735/src/SecLib.a(seclib.o)
                0x00215171                seclib_sej_init
 .text.seclib_cust_init
                0x0021518c       0x80 /xspace/OrangePi/MTK/OrangePi_4G-iot/bootloader/preloader/platform/mt6735/src/SecLib.a(seclib.o)
                0x0021518d                seclib_cust_init
 .text.seclib_check
                0x0021520c        0x2 /xspace/OrangePi/MTK/OrangePi_4G-iot/bootloader/preloader/platform/mt6735/src/SecLib.a(seclib.o)
                0x0021520d                seclib_check
 .text.seclib_img_auth_init
                0x00215210       0x5c /xspace/OrangePi/MTK/OrangePi_4G-iot/bootloader/preloader/platform/mt6735/src/SecLib.a(seclib.o)
                0x00215211                seclib_img_auth_init
 .text.seclib_img_auth_load_sig
                0x0021526c      0x19c /xspace/OrangePi/MTK/OrangePi_4G-iot/bootloader/preloader/platform/mt6735/src/SecLib.a(seclib.o)
                0x0021526d                seclib_img_auth_load_sig
 .text.seclib_set_img_hdr_ver
                0x00215408       0xa4 /xspace/OrangePi/MTK/OrangePi_4G-iot/bootloader/preloader/platform/mt6735/src/SecLib.a(seclib.o)
                0x00215409                seclib_set_img_hdr_ver
 .text.seclib_secroimg_read
                0x002154ac      0x108 /xspace/OrangePi/MTK/OrangePi_4G-iot/bootloader/preloader/platform/mt6735/src/SecLib.a(seclib_secroimg.o)
                0x002154ad                seclib_secroimg_read
 .text.sp_read_swotp
                0x002155b4       0x48 /xspace/OrangePi/MTK/OrangePi_4G-iot/bootloader/preloader/platform/mt6735/src/SecLib.a(seclib_sej_export.o)
                0x002155b5                sp_read_swotp
 .text.sp_sej_dec
                0x002155fc       0x7c /xspace/OrangePi/MTK/OrangePi_4G-iot/bootloader/preloader/platform/mt6735/src/SecLib.a(seclib_sej_export.o)
                0x002155fd                sp_sej_dec
 .text.sp_sej_ac_init
                0x00215678       0x3c /xspace/OrangePi/MTK/OrangePi_4G-iot/bootloader/preloader/platform/mt6735/src/SecLib.a(seclib_sej_export.o)
                0x00215679                sp_sej_ac_init
 .text.sp_sej_ac_run
                0x002156b4        0xe /xspace/OrangePi/MTK/OrangePi_4G-iot/bootloader/preloader/platform/mt6735/src/SecLib.a(seclib_sej_export.o)
                0x002156b5                sp_sej_ac_run
 .text.sp_sej_ac_done
                0x002156c2        0xa /xspace/OrangePi/MTK/OrangePi_4G-iot/bootloader/preloader/platform/mt6735/src/SecLib.a(seclib_sej_export.o)
                0x002156c3                sp_sej_ac_done
 .text.sp_sej_init
                0x002156cc       0x54 /xspace/OrangePi/MTK/OrangePi_4G-iot/bootloader/preloader/platform/mt6735/src/SecLib.a(seclib_sej_export.o)
                0x002156cd                sp_sej_init
 .text.sp_check_platform
                0x00215720        0x4 /xspace/OrangePi/MTK/OrangePi_4G-iot/bootloader/preloader/platform/mt6735/src/SecLib.a(seclib_sej_export.o)
                0x00215721                sp_check_platform
 .text.get_sec_cfg_cnt_size
                0x00215724        0x6 /xspace/OrangePi/MTK/OrangePi_4G-iot/bootloader/preloader/platform/mt6735/src/SecLib.a(seclib_util.o)
                0x00215725                get_sec_cfg_cnt_size
 .text.rev_buf  0x0021572a       0x22 /xspace/OrangePi/MTK/OrangePi_4G-iot/bootloader/preloader/platform/mt6735/src/SecLib.a(seclib_util.o)
                0x0021572b                rev_buf
 .text.sha256_compress
                0x0021574c       0x10 /xspace/OrangePi/MTK/OrangePi_4G-iot/bootloader/preloader/platform/mt6735/src/SecLib.a(sha256.o)
 .text.sha256_init
                0x0021575c       0x58 /xspace/OrangePi/MTK/OrangePi_4G-iot/bootloader/preloader/platform/mt6735/src/SecLib.a(sha256.o)
                0x0021575d                sha256_init
 .text.sha256_process
                0x002157b4       0xb0 /xspace/OrangePi/MTK/OrangePi_4G-iot/bootloader/preloader/platform/mt6735/src/SecLib.a(sha256.o)
                0x002157b5                sha256_process
 .text.sha256_done
                0x00215864       0xf4 /xspace/OrangePi/MTK/OrangePi_4G-iot/bootloader/preloader/platform/mt6735/src/SecLib.a(sha256.o)
                0x00215865                sha256_done
 .text.sha256   0x00215958       0x34 /xspace/OrangePi/MTK/OrangePi_4G-iot/bootloader/preloader/platform/mt6735/src/SecLib.a(sha256.o)
                0x00215959                sha256
 .text.mpSetEqual
                0x0021598c       0x14 /xspace/OrangePi/MTK/OrangePi_4G-iot/bootloader/preloader/platform/mt6735/src/SecLib.a(rsa2048.o)
 .text.mpShiftRight
                0x002159a0       0x80 /xspace/OrangePi/MTK/OrangePi_4G-iot/bootloader/preloader/platform/mt6735/src/SecLib.a(rsa2048.o)
 .text.mpShiftLeft
                0x00215a20       0x90 /xspace/OrangePi/MTK/OrangePi_4G-iot/bootloader/preloader/platform/mt6735/src/SecLib.a(rsa2048.o)
 .text.modMultTemp.constprop.2
                0x00215ab0      0x36c /xspace/OrangePi/MTK/OrangePi_4G-iot/bootloader/preloader/platform/mt6735/src/SecLib.a(rsa2048.o)
 .text.RSADecryption65537
                0x00215e1c      0x108 /xspace/OrangePi/MTK/OrangePi_4G-iot/bootloader/preloader/platform/mt6735/src/SecLib.a(rsa2048.o)
                0x00215e1d                RSADecryption65537
 .text.pkcs_1_mgf1_sha256
                0x00215f24       0xaa /xspace/OrangePi/MTK/OrangePi_4G-iot/bootloader/preloader/platform/mt6735/src/SecLib.a(rsa2048.o)
                0x00215f25                pkcs_1_mgf1_sha256
 .text.pkcs_1_pss_decode_sha256
                0x00215fce      0x2d2 /xspace/OrangePi/MTK/OrangePi_4G-iot/bootloader/preloader/platform/mt6735/src/SecLib.a(rsa2048.o)
                0x00215fcf                pkcs_1_pss_decode_sha256
 .text.get_seccfg_cipher_len
                0x002162a0        0x6 /xspace/OrangePi/MTK/OrangePi_4G-iot/bootloader/preloader/platform/mt6735/src/SecLib.a(seccfg_crypto.o)
                0x002162a1                get_seccfg_cipher_len
 .text.malloc   0x002162a8       0x88 /xspace/OrangePi/MTK/OrangePi_4G-iot/bootloader/preloader/platform/mt6735/src/security/auth/DaVerifyLib.a(stdlib.o)
                0x002162a9                malloc
 .text.free     0x00216330        0x2 /xspace/OrangePi/MTK/OrangePi_4G-iot/bootloader/preloader/platform/mt6735/src/security/auth/DaVerifyLib.a(stdlib.o)
                0x00216331                free
 .text.seclib_sbc_enabled
                0x00216334       0x44 /xspace/OrangePi/MTK/OrangePi_4G-iot/bootloader/preloader/platform/mt6735/src/SecPlat.a(efuse.o)
                0x00216335                seclib_sbc_enabled
 .text.seclib_daa_enabled
                0x00216378       0x44 /xspace/OrangePi/MTK/OrangePi_4G-iot/bootloader/preloader/platform/mt6735/src/SecPlat.a(efuse.o)
                0x00216379                seclib_daa_enabled
 .text.seclib_sla_enabled
                0x002163bc       0x44 /xspace/OrangePi/MTK/OrangePi_4G-iot/bootloader/preloader/platform/mt6735/src/SecPlat.a(efuse.o)
                0x002163bd                seclib_sla_enabled
 .text.seclib_3g_disable
                0x00216400       0x10 /xspace/OrangePi/MTK/OrangePi_4G-iot/bootloader/preloader/platform/mt6735/src/SecPlat.a(efuse.o)
                0x00216401                seclib_3g_disable
 .text.seclib_get_devinfo_with_index
                0x00216410       0x40 /xspace/OrangePi/MTK/OrangePi_4G-iot/bootloader/preloader/platform/mt6735/src/SecPlat.a(efuse.o)
                0x00216411                seclib_get_devinfo_with_index
 .text.gcpu_hw_reset
                0x00216450       0x18 /xspace/OrangePi/MTK/OrangePi_4G-iot/bootloader/preloader/platform/mt6735/src/SecPlat.a(gcpu.o)
                0x00216451                gcpu_hw_reset
 .text.gcpu_cmd
                0x00216468       0x50 /xspace/OrangePi/MTK/OrangePi_4G-iot/bootloader/preloader/platform/mt6735/src/SecPlat.a(gcpu.o)
                0x00216469                gcpu_cmd
 .text.gcpu_isr
                0x002164b8       0x24 /xspace/OrangePi/MTK/OrangePi_4G-iot/bootloader/preloader/platform/mt6735/src/SecPlat.a(gcpu.o)
                0x002164b9                gcpu_isr
 .text.gcpu_init
                0x002164dc       0x80 /xspace/OrangePi/MTK/OrangePi_4G-iot/bootloader/preloader/platform/mt6735/src/SecPlat.a(gcpu.o)
                0x002164dd                gcpu_init
 .text.gcpu_uninit
                0x0021655c       0x24 /xspace/OrangePi/MTK/OrangePi_4G-iot/bootloader/preloader/platform/mt6735/src/SecPlat.a(gcpu.o)
                0x0021655d                gcpu_uninit
 .text.crypto_hw_secure
                0x00216580       0x18 /xspace/OrangePi/MTK/OrangePi_4G-iot/bootloader/preloader/platform/mt6735/src/SecPlat.a(gcpu.o)
                0x00216581                crypto_hw_secure
 .text.crypto_hw_sha256
                0x00216598      0x104 /xspace/OrangePi/MTK/OrangePi_4G-iot/bootloader/preloader/platform/mt6735/src/SecPlat.a(gcpu.o)
                0x00216599                crypto_hw_sha256
 .text.seclib_brom_meta_mode
                0x0021669c        0xc /xspace/OrangePi/MTK/OrangePi_4G-iot/bootloader/preloader/platform/mt6735/src/SecPlat.a(meta.o)
                0x0021669d                seclib_brom_meta_mode
 .text.trustonic_tee_verify
                0x002166a8      0x164 /xspace/OrangePi/MTK/OrangePi_4G-iot/bootloader/preloader/platform/mt6735/src/SecPlat.a(sec_boot_tz_trustonic.o)
                0x002166a9                trustonic_tee_verify
 .text.trustonic_tee_decrypt
                0x0021680c        0x4 /xspace/OrangePi/MTK/OrangePi_4G-iot/bootloader/preloader/platform/mt6735/src/SecPlat.a(sec_boot_tz_trustonic.o)
                0x0021680d                trustonic_tee_decrypt
 .text.seclib_region_check
                0x00216810       0x3c /xspace/OrangePi/MTK/OrangePi_4G-iot/bootloader/preloader/platform/mt6735/src/SecPlat.a(seclib_region.o)
                0x00216811                seclib_region_check
 .text.SEJ_V3_Init
                0x0021684c      0x108 /xspace/OrangePi/MTK/OrangePi_4G-iot/bootloader/preloader/platform/mt6735/src/SecPlat.a(sej_hk.o)
                0x0021684d                SEJ_V3_Init
 .text.SEJ_V3_Run
                0x00216954       0x88 /xspace/OrangePi/MTK/OrangePi_4G-iot/bootloader/preloader/platform/mt6735/src/SecPlat.a(sej_hk.o)
                0x00216955                SEJ_V3_Run
 .text.SEJ_V3_Terminate
                0x002169dc       0x24 /xspace/OrangePi/MTK/OrangePi_4G-iot/bootloader/preloader/platform/mt6735/src/SecPlat.a(sej_hk.o)
                0x002169dd                SEJ_V3_Terminate
 .text.sej_set_clk
                0x00216a00        0x4 /xspace/OrangePi/MTK/OrangePi_4G-iot/bootloader/preloader/platform/mt6735/src/SecPlat.a(sej_sk.o)
                0x00216a01                sej_set_clk
 .text.sej_set_iv
                0x00216a04       0x18 /xspace/OrangePi/MTK/OrangePi_4G-iot/bootloader/preloader/platform/mt6735/src/SecPlat.a(sej_sk.o)
                0x00216a05                sej_set_iv
 .text.sej_set_mode
                0x00216a1c       0x3c /xspace/OrangePi/MTK/OrangePi_4G-iot/bootloader/preloader/platform/mt6735/src/SecPlat.a(sej_sk.o)
                0x00216a1d                sej_set_mode
 .text.sej_set_key
                0x00216a58       0xd4 /xspace/OrangePi/MTK/OrangePi_4G-iot/bootloader/preloader/platform/mt6735/src/SecPlat.a(sej_sk.o)
                0x00216a59                sej_set_key
 .text.sej_do_aes
                0x00216b2c       0xbc /xspace/OrangePi/MTK/OrangePi_4G-iot/bootloader/preloader/platform/mt6735/src/SecPlat.a(sej_sk.o)
                0x00216b2d                sej_do_aes
 .text.seclib_get_random_id
                0x00216be8       0x6c /xspace/OrangePi/MTK/OrangePi_4G-iot/bootloader/preloader/platform/mt6735/src/SecPlat.a(sej_sk.o)
                0x00216be9                seclib_get_random_id
 .text.sej_deinit
                0x00216c54       0x14 /xspace/OrangePi/MTK/OrangePi_4G-iot/bootloader/preloader/platform/mt6735/src/SecPlat.a(sej_sk.o)
                0x00216c55                sej_deinit
 .text.sej_jtag_disable
                0x00216c68       0x78 /xspace/OrangePi/MTK/OrangePi_4G-iot/bootloader/preloader/platform/mt6735/src/SecPlat.a(sej_sk.o)
                0x00216c69                sej_jtag_disable
 .text.sej_jtag_lock
                0x00216ce0       0x70 /xspace/OrangePi/MTK/OrangePi_4G-iot/bootloader/preloader/platform/mt6735/src/SecPlat.a(sej_sk.o)
                0x00216ce1                sej_jtag_lock
 .text.sej_jtag_control
                0x00216d50       0x54 /xspace/OrangePi/MTK/OrangePi_4G-iot/bootloader/preloader/platform/mt6735/src/SecPlat.a(sej_sk.o)
                0x00216d51                sej_jtag_control
 .text.sej_init
                0x00216da4       0xe0 /xspace/OrangePi/MTK/OrangePi_4G-iot/bootloader/preloader/platform/mt6735/src/SecPlat.a(sej_sk.o)
                0x00216da5                sej_init
 .text.vHexDumpBuf
                0x00216e84        0x2 /xspace/OrangePi/MTK/OrangePi_4G-iot/bootloader/preloader/platform/mt6735/src/SecPlat.a(sec_boot_tz_common.o)
                0x00216e85                vHexDumpBuf
 .text.verify_mtee_img_hdr
                0x00216e88       0x90 /xspace/OrangePi/MTK/OrangePi_4G-iot/bootloader/preloader/platform/mt6735/src/SecPlat.a(sec_boot_tz_common.o)
                0x00216e89                verify_mtee_img_hdr
 .text.get_ul   0x00216f18       0x18 /xspace/OrangePi/MTK/OrangePi_4G-iot/bootloader/preloader/platform/mt6735/src/security/auth/DaVerifyLib.a(sha1.o)
                0x00216f19                get_ul
 .text.hash_process
                0x00216f30      0xf68 /xspace/OrangePi/MTK/OrangePi_4G-iot/bootloader/preloader/platform/mt6735/src/security/auth/DaVerifyLib.a(sha1.o)
 .text.set_ul   0x00217e98       0x12 /xspace/OrangePi/MTK/OrangePi_4G-iot/bootloader/preloader/platform/mt6735/src/security/auth/DaVerifyLib.a(sha1.o)
                0x00217e99                set_ul
 .text.hash_starts
                0x00217eac       0x2c /xspace/OrangePi/MTK/OrangePi_4G-iot/bootloader/preloader/platform/mt6735/src/security/auth/DaVerifyLib.a(sha1.o)
                0x00217ead                hash_starts
 .text.hash_update
                0x00217ed8       0x72 /xspace/OrangePi/MTK/OrangePi_4G-iot/bootloader/preloader/platform/mt6735/src/security/auth/DaVerifyLib.a(sha1.o)
                0x00217ed9                hash_update
 .text.hash_finish
                0x00217f4c       0x64 /xspace/OrangePi/MTK/OrangePi_4G-iot/bootloader/preloader/platform/mt6735/src/security/auth/DaVerifyLib.a(sha1.o)
                0x00217f4d                hash_finish
 .text.sha1     0xffffffffffffffff       0x32 /xspace/OrangePi/MTK/OrangePi_4G-iot/bootloader/preloader/platform/mt6735/src/security/auth/DaVerifyLib.a(sha1.o)
                0x00217fb1                sha1

.rodata         0x00217ff4     0x269c
 .rodata        0x00217ff4        0x4 /xspace/OrangePi/MTK/OrangePi_4G-iot/output//obj/download.o
 .rodata        0x00217ff8       0x10 /xspace/OrangePi/MTK/OrangePi_4G-iot/output//obj/msdc.o
 .rodata        0x00218008        0x8 /xspace/OrangePi/MTK/OrangePi_4G-iot/output//obj/pmic_wrap_init.o
 ** merge strings
                0x00218010     0x23ce
 .rodata.tran_mant
                0x0021a3de       0x10 /xspace/OrangePi/MTK/OrangePi_4G-iot/output//obj/mmc_core.o
 .rodata.tran_exp
                0x0021a3f0       0x20 /xspace/OrangePi/MTK/OrangePi_4G-iot/output//obj/mmc_core.o
 .rodata.write_data_edge.5355
                0x0021a410        0x4 /xspace/OrangePi/MTK/OrangePi_4G-iot/output//obj/msdc.o
 .rodata.msdc_rsp
                0x0021a414       0x24 /xspace/OrangePi/MTK/OrangePi_4G-iot/output//obj/msdc.o
 .rodata.read_data_edge.5354
                0x0021a438        0x8 /xspace/OrangePi/MTK/OrangePi_4G-iot/output//obj/msdc.o
 .rodata.sys_stack_sz
                0x0021a440        0x4 /xspace/OrangePi/MTK/OrangePi_4G-iot/output//obj/platform.o
                0x0021a440                sys_stack_sz
 .rodata.mt6328_VIO_1_84
                0x0021a444       0x10 /xspace/OrangePi/MTK/OrangePi_4G-iot/output//obj/pmic.o
 .rodata.mt6328_ovp_trim
                0x0021a454       0x40 /xspace/OrangePi/MTK/OrangePi_4G-iot/output//obj/pmic.o
 .rodata.digits.4652
                0x0021a494        0xb /xspace/OrangePi/MTK/OrangePi_4G-iot/output//obj/stdlib.o
 .rodata.tee_img_vfy_pubk
                0x0021a49f      0x100 /xspace/OrangePi/MTK/OrangePi_4G-iot/output//obj/tz_init.o
 .rodata.__func__.4782
                0x0021a59f       0x1a /xspace/OrangePi/MTK/OrangePi_4G-iot/output//obj/wdt.o
 .rodata.__func__.4739
                0x0021a5b9        0xd /xspace/OrangePi/MTK/OrangePi_4G-iot/output//obj/wdt.o
 .rodata.__func__.4749
                0x0021a5c6       0x12 /xspace/OrangePi/MTK/OrangePi_4G-iot/output//obj/wdt.o
 .rodata.__func__.4773
                0x0021a5d8       0x19 /xspace/OrangePi/MTK/OrangePi_4G-iot/output//obj/wdt.o
 .rodata.__func__.4764
                0x0021a5f1       0x1e /xspace/OrangePi/MTK/OrangePi_4G-iot/output//obj/wdt.o
 .rodata.__FUNCTION__.3846
                0x0021a60f       0x11 /xspace/OrangePi/MTK/OrangePi_4G-iot/bootloader/preloader/platform/mt6735/src/SecPlat.a(gcpu.o)
 .rodata.g_AC_FIXED_PATTERN
                0x0021a620       0x30 /xspace/OrangePi/MTK/OrangePi_4G-iot/bootloader/preloader/platform/mt6735/src/SecPlat.a(sej_hk.o)
 .rodata.padding
                0x0021a650       0x40 /xspace/OrangePi/MTK/OrangePi_4G-iot/bootloader/preloader/platform/mt6735/src/security/auth/DaVerifyLib.a(sha1.o)

.data           0x0021a690     0x2418
 .data          0x0021a690       0x38 /xspace/OrangePi/MTK/OrangePi_4G-iot/output//obj/dramc_dqs_gw.o
 .data          0x0021a6c8        0x8 /xspace/OrangePi/MTK/OrangePi_4G-iot/output//obj/handshake_uart.o
 .data          0x0021a6d0        0x8 /xspace/OrangePi/MTK/OrangePi_4G-iot/output//obj/handshake_usb.o
 .data.clk_buf_swctrl
                0x0021a6d8       0x10 /xspace/OrangePi/MTK/OrangePi_4G-iot/output//obj/clkbuf_ctl.o
 .data.msdc_cap
                0x0021a6e8       0x14 /xspace/OrangePi/MTK/OrangePi_4G-iot/output//obj/cust_msdc.o
                0x0021a6e8                msdc_cap
 .data.Bit_DQO_Mapping
                0x0021a6fc       0x20 /xspace/OrangePi/MTK/OrangePi_4G-iot/output//obj/dramc_calib.o
                0x0021a6fc                Bit_DQO_Mapping
 .data.DQM_Mapping
                0x0021a71c        0x4 /xspace/OrangePi/MTK/OrangePi_4G-iot/output//obj/dramc_calib.o
                0x0021a71c                DQM_Mapping
 .data.DQSO_Mapping
                0x0021a720        0x4 /xspace/OrangePi/MTK/OrangePi_4G-iot/output//obj/dramc_calib.o
                0x0021a720                DQSO_Mapping
 .data.rel.dqs_gw_tuning_factors
                0x0021a724       0x28 /xspace/OrangePi/MTK/OrangePi_4G-iot/output//obj/dramc_dqs_gw.o
                0x0021a724                dqs_gw_tuning_factors
 .data.rel.dqs_gw_test_cases_1
                0x0021a74c       0x10 /xspace/OrangePi/MTK/OrangePi_4G-iot/output//obj/dramc_dqs_gw.o
                0x0021a74c                dqs_gw_test_cases_1
 .data.rel.dqs_gw_test_cases_2
                0x0021a75c       0x10 /xspace/OrangePi/MTK/OrangePi_4G-iot/output//obj/dramc_dqs_gw.o
                0x0021a75c                dqs_gw_test_cases_2
 .data.rel.local.dqsi_gw_dly_coarse_tbl
                0x0021a76c       0x78 /xspace/OrangePi/MTK/OrangePi_4G-iot/output//obj/dramc_dqs_gw.o
                0x0021a76c                dqsi_gw_dly_coarse_tbl
 .data.rel.local.dqsi_gw_dly_fine_tbl
                0x0021a7e4       0x44 /xspace/OrangePi/MTK/OrangePi_4G-iot/output//obj/dramc_dqs_gw.o
                0x0021a7e4                dqsi_gw_dly_fine_tbl
 .data.num_of_emi_records
                0x0021a828        0x4 /xspace/OrangePi/MTK/OrangePi_4G-iot/output//obj/emi.o
                0x0021a828                num_of_emi_records
 .data.emi_settings
                0x0021a82c      0x3ac /xspace/OrangePi/MTK/OrangePi_4G-iot/output//obj/emi.o
                0x0021a82c                emi_settings
 .data.emi_setting_default_lpddr2
                0x0021abd8       0xbc /xspace/OrangePi/MTK/OrangePi_4G-iot/output//obj/emi.o
                0x0021abd8                emi_setting_default_lpddr2
 .data.emi_setting_default_lpddr3
                0x0021ac94       0xbc /xspace/OrangePi/MTK/OrangePi_4G-iot/output//obj/emi.o
                0x0021ac94                emi_setting_default_lpddr3
 .data.mdl_number.4872
                0x0021ad50        0x4 /xspace/OrangePi/MTK/OrangePi_4G-iot/output//obj/emi.o
 .data.DATAOUT_addr
                0x0021ad54      0x318 /xspace/OrangePi/MTK/OrangePi_4G-iot/output//obj/gpio.o
                0x0021ad54                DATAOUT_addr
 .data.MODE_offset
                0x0021b06c       0xc6 /xspace/OrangePi/MTK/OrangePi_4G-iot/output//obj/gpio.o
                0x0021b06c                MODE_offset
 .data.PULL_offset
                0x0021b132       0xc6 /xspace/OrangePi/MTK/OrangePi_4G-iot/output//obj/gpio.o
                0x0021b132                PULL_offset
 .data.pupd_addr
                0x0021b1f8      0x318 /xspace/OrangePi/MTK/OrangePi_4G-iot/output//obj/gpio.o
                0x0021b1f8                pupd_addr
 .data.pupd_offset
                0x0021b510       0xc6 /xspace/OrangePi/MTK/OrangePi_4G-iot/output//obj/gpio.o
                0x0021b510                pupd_offset
 .data.MODE_addr
                0x0021b5d8      0x318 /xspace/OrangePi/MTK/OrangePi_4G-iot/output//obj/gpio.o
                0x0021b5d8                MODE_addr
 .data.PULLEN_offset
                0x0021b8f0       0xc6 /xspace/OrangePi/MTK/OrangePi_4G-iot/output//obj/gpio.o
                0x0021b8f0                PULLEN_offset
 .data.DIR_offset
                0x0021b9b6       0xc6 /xspace/OrangePi/MTK/OrangePi_4G-iot/output//obj/gpio.o
                0x0021b9b6                DIR_offset
 .data.PULL_addr
                0x0021ba7c      0x318 /xspace/OrangePi/MTK/OrangePi_4G-iot/output//obj/gpio.o
                0x0021ba7c                PULL_addr
 .data.DATAOUT_offset
                0x0021bd94       0xc6 /xspace/OrangePi/MTK/OrangePi_4G-iot/output//obj/gpio.o
                0x0021bd94                DATAOUT_offset
 .data.PULLEN_addr
                0x0021be5c      0x318 /xspace/OrangePi/MTK/OrangePi_4G-iot/output//obj/gpio.o
                0x0021be5c                PULLEN_addr
 .data.DIR_addr
                0x0021c174      0x318 /xspace/OrangePi/MTK/OrangePi_4G-iot/output//obj/gpio.o
                0x0021c174                DIR_addr
 .data.hclks_msdc50
                0x0021c48c       0x2c /xspace/OrangePi/MTK/OrangePi_4G-iot/output//obj/msdc.o
 .data.hclks_msdc30
                0x0021c4b8       0x20 /xspace/OrangePi/MTK/OrangePi_4G-iot/output//obj/msdc.o
 .data.rel.local.msdc_src_clks
                0x0021c4d8        0x4 /xspace/OrangePi/MTK/OrangePi_4G-iot/output//obj/msdc.o
 .data.rel.local.ptp_detectors
                0x0021c4dc      0x318 /xspace/OrangePi/MTK/OrangePi_4G-iot/output//obj/mt_ptp.o
 .data.count_time_out
                0x0021c7f4        0x4 /xspace/OrangePi/MTK/OrangePi_4G-iot/output//obj/pmic.o
                0x0021c7f4                count_time_out
 .data.vbat_status
                0x0021c7f8        0x4 /xspace/OrangePi/MTK/OrangePi_4G-iot/output//obj/pmic.o
 .data.g_log_drambuf
                0x0021c7fc        0x4 /xspace/OrangePi/MTK/OrangePi_4G-iot/output//obj/print.o
 .data.g_oemkey
                0x0021c800      0x100 /xspace/OrangePi/MTK/OrangePi_4G-iot/output//obj/sec_boot.o
                0x0021c800                g_oemkey
 .data.g_blacklist
                0x0021c900       0x30 /xspace/OrangePi/MTK/OrangePi_4G-iot/output//obj/sec_region.o
                0x0021c900                g_blacklist
 .data.rel.ro.spm_cpu_mtcmos_ctrl_funcs
                0x0021c930       0x20 /xspace/OrangePi/MTK/OrangePi_4G-iot/output//obj/spm_mtcmos.o
 .data.rst_vector_base_addr
                0x0021c950        0x4 /xspace/OrangePi/MTK/OrangePi_4G-iot/output//obj/tz_init.o
                0x0021c950                rst_vector_base_addr
 .data.bl31_base_addr
                0x0021c954        0x4 /xspace/OrangePi/MTK/OrangePi_4G-iot/output//obj/tz_init.o
                0x0021c954                bl31_base_addr
 .data.g_uart   0x0021c958        0x4 /xspace/OrangePi/MTK/OrangePi_4G-iot/output//obj/uart.o
                0x0021c958                g_uart
 .data.g_line_coding
                0x0021c95c        0x7 /xspace/OrangePi/MTK/OrangePi_4G-iot/output//obj/usbd.o
 .data.fifo_addr
                0x0021c964        0x4 /xspace/OrangePi/MTK/OrangePi_4G-iot/output//obj/usbd.o
                0x0021c964                fifo_addr
 .data.rel.local.fs_data_ep_descriptor_ptrs
                0x0021c968        0x8 /xspace/OrangePi/MTK/OrangePi_4G-iot/output//obj/usbtty.o
 .data.rel.local.usbtty_string_table
                0x0021c970       0x1c /xspace/OrangePi/MTK/OrangePi_4G-iot/output//obj/usbtty.o
 .data.header_function_descriptor
                0x0021c98c        0x5 /xspace/OrangePi/MTK/OrangePi_4G-iot/output//obj/usbtty.o
 .data.rel.local.fs_comm_ep_descriptor_ptrs
                0x0021c994        0x4 /xspace/OrangePi/MTK/OrangePi_4G-iot/output//obj/usbtty.o
 .data.rel.local.hs_comm_ep_descriptor_ptrs
                0x0021c998        0x4 /xspace/OrangePi/MTK/OrangePi_4G-iot/output//obj/usbtty.o
 .data.call_management_descriptor
                0x0021c99c        0x5 /xspace/OrangePi/MTK/OrangePi_4G-iot/output//obj/usbtty.o
                0x0021c99c                call_management_descriptor
 .data.device_qualifier_descriptor
                0x0021c9a1        0x9 /xspace/OrangePi/MTK/OrangePi_4G-iot/output//obj/usbtty.o
 .data.rel.local.hs_data_ep_descriptor_ptrs
                0x0021c9ac        0x8 /xspace/OrangePi/MTK/OrangePi_4G-iot/output//obj/usbtty.o
 .data.language
                0x0021c9b4        0x4 /xspace/OrangePi/MTK/OrangePi_4G-iot/output//obj/usbtty.o
 .data.hs_ep_descriptors
                0x0021c9b8       0x18 /xspace/OrangePi/MTK/OrangePi_4G-iot/output//obj/usbtty.o
 .data.device_descriptor
                0x0021c9d0       0x12 /xspace/OrangePi/MTK/OrangePi_4G-iot/output//obj/usbtty.o
 .data.abstract_control_descriptor
                0x0021c9e2        0x4 /xspace/OrangePi/MTK/OrangePi_4G-iot/output//obj/usbtty.o
 .data.fs_ep_descriptors
                0x0021c9e6       0x18 /xspace/OrangePi/MTK/OrangePi_4G-iot/output//obj/usbtty.o
 .data.interface_descriptors
                0x0021c9fe       0x12 /xspace/OrangePi/MTK/OrangePi_4G-iot/output//obj/usbtty.o
 .data.config_descriptors
                0x0021ca10        0x9 /xspace/OrangePi/MTK/OrangePi_4G-iot/output//obj/usbtty.o
 .data.union_function_descriptor
                0x0021ca19        0x5 /xspace/OrangePi/MTK/OrangePi_4G-iot/output//obj/usbtty.o
                0x0021ca19                union_function_descriptor
 .data.g_hdr_ver
                0x0021ca20        0x4 /xspace/OrangePi/MTK/OrangePi_4G-iot/bootloader/preloader/platform/mt6735/src/SecLib.a(seclib.o)
                0x0021ca20                g_hdr_ver
 .data.g_devinfo_data_addr
                0x0021ca24       0x68 /xspace/OrangePi/MTK/OrangePi_4G-iot/bootloader/preloader/platform/mt6735/src/SecPlat.a(efuse.o)
                0x0021ca24                g_devinfo_data_addr
 .data.thermal_option
                0x0021ca8c        0x4 /xspace/OrangePi/MTK/OrangePi_4G-iot/bootloader/preloader/platform/mt6735/src/SecPlat.a(efuse.o)
 .data.bOnly.3821
                0x0021ca90        0x1 /xspace/OrangePi/MTK/OrangePi_4G-iot/bootloader/preloader/platform/mt6735/src/SecPlat.a(gcpu.o)
 .data.g_DbgSUP
                0x0021ca94       0x14 /xspace/OrangePi/MTK/OrangePi_4G-iot/bootloader/preloader/platform/mt6735/src/SecPlat.a(sej_sk.o)
                0x0021ca94                g_DbgSUP

.got            0x0021caa8      0x1f4
 ** GOT         0x0021caa8      0x1e8
 ** GOT PLT     0x0021cc90        0xc
